TN:
SF:/home/tbrock/Code/mongo-cxx-driver/src/mongo/base/global_initializer.cpp
FN:22,_ZN5mongo20getGlobalInitializerEv
FN:32,_Z41__static_initialization_and_destruction_0ii
FN:36,_GLOBAL__sub_I_global_initializer.cpp
FNDA:421,_ZN5mongo20getGlobalInitializerEv
FNDA:28,_GLOBAL__sub_I_global_initializer.cpp
FNDA:28,_Z41__static_initialization_and_destruction_0ii
FNF:3
FNH:3
DA:22,421
DA:23,421
DA:24,421
DA:32,28
DA:36,84
LF:5
LH:5
end_of_record
TN:
SF:/home/tbrock/Code/mongo-cxx-driver/src/mongo/base/global_initializer_registerer.cpp
FN:26,_ZN5mongo27GlobalInitializerRegistererC2ERKSsRKN5boost8functionIFNS_6StatusEPNS_18InitializerContextEEEERKSt6vectorISsSaISsEESG_
FN:43,_GLOBAL__sub_I_global_initializer_registerer.cpp
FN:43,_Z41__static_initialization_and_destruction_0ii
FNDA:365,_ZN5mongo27GlobalInitializerRegistererC2ERKSsRKN5boost8functionIFNS_6StatusEPNS_18InitializerContextEEEERKSt6vectorISsSaISsEESG_
FNDA:28,_GLOBAL__sub_I_global_initializer_registerer.cpp
FNDA:28,_Z41__static_initialization_and_destruction_0ii
FNF:3
FNH:3
DA:26,365
DA:32,365
DA:33,365
DA:36,730
DA:37,0
DA:38,0
DA:39,0
DA:41,365
DA:43,84
LF:9
LH:6
end_of_record
TN:
SF:/home/tbrock/Code/mongo-cxx-driver/src/mongo/base/init.cpp
FN:18,_Z41__static_initialization_and_destruction_0ii
FN:18,_Z33_mongoInitializerFunction_defaultPN5mongo18InitializerContextE
FN:20,_ZN5mongo41_mongoInitializerFunctionAssure_base_initEv
FN:20,_GLOBAL__sub_I_init.cpp
FNDA:28,_Z41__static_initialization_and_destruction_0ii
FNDA:0,_ZN5mongo41_mongoInitializerFunctionAssure_base_initEv
FNDA:28,_GLOBAL__sub_I_init.cpp
FNDA:28,_Z33_mongoInitializerFunction_defaultPN5mongo18InitializerContextE
FNF:4
FNH:3
DA:18,168
DA:20,84
LF:2
LH:2
end_of_record
TN:
SF:/home/tbrock/Code/mongo-cxx-driver/src/mongo/base/initializer.cpp
FN:24,_ZN5mongo11InitializerC2Ev
FN:25,_ZN5mongo11InitializerD2Ev
FN:79,_ZN5mongo21runGlobalInitializersERKSt6vectorISsSaISsEERKSt3mapISsSsSt4lessISsESaISt4pairIKSsSsEEE
FN:103,_ZN5mongo26runGlobalInitializersOrDieEiPKPKcS3_
FN:111,_Z41__static_initialization_and_destruction_0ii
FN:111,_GLOBAL__sub_I_initializer.cpp
FNDA:28,_Z41__static_initialization_and_destruction_0ii
FNDA:28,_GLOBAL__sub_I_initializer.cpp
FNDA:27,_ZN5mongo11InitializerD2Ev
FNDA:28,_ZN5mongo11InitializerC2Ev
FNDA:28,_ZN5mongo21runGlobalInitializersEiPKPKcS3_
FNDA:28,_ZNK5mongo11Initializer7executeERKSt6vectorISsSaISsEERKSt3mapISsSsSt4lessISsESaISt4pairIKSsSsEEE
FNDA:28,_ZN5mongo21runGlobalInitializersERKSt6vectorISsSaISsEERKSt3mapISsSsSt4lessISsESaISt4pairIKSsSsEEE
FNDA:0,_ZN5mongo26runGlobalInitializersOrDieEiPKPKcS3_
FNF:8
FNH:7
DA:24,28
DA:25,27
DA:50,28
DA:54,28
DA:55,56
DA:58,56
DA:60,758
DA:61,730
DA:62,365
DA:64,0
DA:65,0
DA:68,730
DA:73,730
DA:76,28
DA:79,28
DA:81,28
DA:84,28
DA:85,56
DA:86,28
DA:90,28
DA:91,0
DA:92,0
DA:93,0
DA:94,0
DA:96,0
DA:100,56
DA:103,0
DA:104,0
DA:105,0
DA:106,0
DA:107,0
DA:109,0
DA:111,84
LF:33
LH:20
end_of_record
TN:
SF:/home/tbrock/Code/mongo-cxx-driver/src/mongo/base/initializer_context.cpp
FN:20,_ZN5mongo18InitializerContextC2ERKSt6vectorISsSaISsEERKSt3mapISsSsSt4lessISsESaISt4pairIKSsSsEEE
FNDA:28,_ZN5mongo18InitializerContextC2ERKSt6vectorISsSaISsEERKSt3mapISsSsSt4lessISsESaISt4pairIKSsSsEEE
FNF:1
FNH:1
DA:20,28
DA:22,56
LF:2
LH:2
end_of_record
TN:
SF:/home/tbrock/Code/mongo-cxx-driver/src/mongo/base/initializer_context.h
FN:31,_ZN5mongo18InitializerContextD2Ev
FNDA:28,_ZN5mongo18InitializerContextD2Ev
FNF:1
FNH:1
DA:31,56
LF:1
LH:1
end_of_record
TN:
SF:/home/tbrock/Code/mongo-cxx-driver/src/mongo/base/initializer_dependency_graph.cpp
FN:24,_ZN5mongo26InitializerDependencyGraphC2Ev
FN:25,_ZN5mongo26InitializerDependencyGraphD2Ev
FN:27,_ZN5mongo26InitializerDependencyGraph14addInitializerERKSsRKN5boost8functionIFNS_6StatusEPNS_18InitializerContextEEEERKSt6vectorISsSaISsEESG_
FN:52,_ZNK5mongo26InitializerDependencyGraph22getInitializerFunctionERKSs
FN:61,_ZNK5mongo26InitializerDependencyGraph7topSortEPSt6vectorISsSaISsEE
FN:91,_ZN5mongo26InitializerDependencyGraph16recursiveTopSortERKNSt3tr113unordered_mapISsNS0_8NodeDataENS1_4hashISsEESt8equal_toISsESaISt4pairIKSsS3_EEEERKSA_PSt6vectorISsSaISsEEPNS1_13unordered_setISsS5_S7_SI_EESK_
FN:154,_Z41__static_initialization_and_destruction_0ii
FN:154,_GLOBAL__sub_I_initializer_dependency_graph.cpp
FNDA:365,_ZN5mongo26InitializerDependencyGraph14addInitializerERKSsRKN5boost8functionIFNS_6StatusEPNS_18InitializerContextEEEERKSt6vectorISsSaISsEESG_
FNDA:28,_ZNK5mongo26InitializerDependencyGraph7topSortEPSt6vectorISsSaISsEE
FNDA:28,_Z41__static_initialization_and_destruction_0ii
FNDA:730,_ZN5mongo26InitializerDependencyGraph16recursiveTopSortERKNSt3tr113unordered_mapISsNS0_8NodeDataENS1_4hashISsEESt8equal_toISsESaISt4pairIKSsS3_EEEERKSA_PSt6vectorISsSaISsEEPNS1_13unordered_setISsS5_S7_SI_EESK_
FNDA:28,_ZN5mongo26InitializerDependencyGraphC2Ev
FNDA:365,_ZNK5mongo26InitializerDependencyGraph22getInitializerFunctionERKSs
FNDA:28,_GLOBAL__sub_I_initializer_dependency_graph.cpp
FNDA:27,_ZN5mongo26InitializerDependencyGraphD2Ev
FNF:8
FNH:8
DA:24,56
DA:25,54
DA:27,365
DA:29,1292
DA:30,898
DA:31,730
DA:32,0
DA:34,365
DA:35,730
DA:36,0
DA:39,365
DA:41,2584
DA:42,843
DA:45,1431
DA:46,252
DA:52,365
DA:55,1095
DA:56,1460
DA:58,730
DA:61,28
DA:74,28
DA:76,28
DA:77,477
DA:81,365
DA:84,365
DA:85,730
DA:88,28
DA:91,730
DA:96,0
DA:109,730
DA:112,730
DA:113,0
DA:115,365
DA:118,730
DA:119,1095
DA:120,0
DA:122,0
DA:123,0
DA:124,0
DA:125,0
DA:126,0
DA:129,730
DA:130,1095
DA:131,1095
DA:134,1095
DA:135,1460
DA:136,0
DA:139,365
DA:142,365
DA:143,730
DA:146,365
DA:147,1095
DA:148,0
DA:149,365
DA:150,730
DA:154,84
LF:56
LH:44
end_of_record
TN:
SF:/home/tbrock/Code/mongo-cxx-driver/src/mongo/base/initializer_dependency_graph.h
FN:92,_ZN5mongo26InitializerDependencyGraph8NodeDataC2Ev
FN:92,_ZN5mongo26InitializerDependencyGraph8NodeDataC2ERKS1_
FNDA:365,_ZN5mongo26InitializerDependencyGraph8NodeDataC2Ev
FNDA:1095,_ZN5mongo26InitializerDependencyGraph8NodeDataC2ERKS1_
FNF:2
FNH:2
DA:92,7272
LF:1
LH:1
end_of_record
TN:
SF:/home/tbrock/Code/mongo-cxx-driver/src/mongo/base/make_string_vector.cpp
FN:24,_ZN5mongo17_makeStringVectorEiz
FN:35,_Z41__static_initialization_and_destruction_0ii
FN:35,_GLOBAL__sub_I_make_string_vector.cpp
FNDA:28,_Z41__static_initialization_and_destruction_0ii
FNDA:28,_GLOBAL__sub_I_make_string_vector.cpp
FNDA:730,_ZN5mongo17_makeStringVectorEiz
FNF:3
FNH:3
DA:24,730
DA:26,730
DA:28,730
DA:29,1825
DA:30,730
DA:31,730
DA:32,730
DA:35,84
LF:8
LH:8
end_of_record
TN:
SF:/home/tbrock/Code/mongo-cxx-driver/src/mongo/base/owned_pointer_vector.h
FN:63,_ZN5mongo18OwnedPointerVectorISt19basic_ostringstreamIcSt11char_traitsIcESaIcEEED2Ev
FN:68,_ZN5mongo18OwnedPointerVectorISt19basic_ostringstreamIcSt11char_traitsIcESaIcEEE5clearEv
FNDA:10,_ZN5mongo18OwnedPointerVectorISt19basic_ostringstreamIcSt11char_traitsIcESaIcEEED2Ev
FNDA:10,_ZN5mongo18OwnedPointerVectorISt19basic_ostringstreamIcSt11char_traitsIcESaIcEEE5clearEv
FNF:2
FNH:2
DA:59,10
DA:63,10
DA:64,10
DA:65,20
DA:68,10
DA:69,80
DA:70,10
DA:72,10
DA:73,10
LF:9
LH:9
end_of_record
TN:
SF:/home/tbrock/Code/mongo-cxx-driver/src/mongo/base/parse_number.cpp
FNDA:730,_ZN5mongo29parseNumberFromStringWithBaseIiEENS_6StatusERKNS_10StringDataEiPT_
FNDA:120,_ZN5mongo29parseNumberFromStringWithBaseIjEENS_6StatusERKNS_10StringDataEiPT_
FNDA:123,_ZN5mongo29parseNumberFromStringWithBaseIlEENS_6StatusERKNS_10StringDataEiPT_
FNDA:122,_ZN5mongo29parseNumberFromStringWithBaseIsEENS_6StatusERKNS_10StringDataEiPT_
FNDA:261,_ZN5mongo29parseNumberFromStringWithBaseIhEENS_6StatusERKNS_10StringDataEiPT_
FNDA:120,_ZN5mongo29parseNumberFromStringWithBaseImEENS_6StatusERKNS_10StringDataEiPT_
FNDA:262,_ZN5mongo29parseNumberFromStringWithBaseIaEENS_6StatusERKNS_10StringDataEiPT_
FNDA:53,_ZN5mongo29parseNumberFromStringWithBaseIdEENS_6StatusERKNS_10StringDataEiPT_
FNDA:120,_ZN5mongo29parseNumberFromStringWithBaseItEENS_6StatusERKNS_10StringDataEiPT_
FNDA:79,_ZN5mongo29parseNumberFromStringWithBaseIxEENS_6StatusERKNS_10StringDataEiPT_
FNDA:1913,_ZN5mongoL12_extractSignERKNS_10StringDataEPb
FNDA:60,_ZN5mongo29parseNumberFromStringWithBaseIyEENS_6StatusERKNS_10StringDataEiPT_
FNDA:1913,_ZN5mongoL12_extractBaseERKNS_10StringDataEiPi
FNF:13
FNH:13
DA:36,4298
DA:38,469
DA:39,231
DA:40,238
DA:41,70
DA:50,3812
DA:51,1913
DA:52,14
DA:53,14
DA:57,3798
DA:59,353
DA:60,353
DA:61,353
DA:63,149
DA:64,149
DA:65,149
DA:67,1397
DA:68,1397
DA:69,1397
DA:72,1899
DA:73,502
DA:74,1397
DA:86,1913
DA:87,831
DA:91,1913
DA:92,1614
DA:93,491
DA:94,56
DA:95,56
DA:97,2729
DA:98,98
DA:99,98
DA:101,969
DA:102,969
DA:105,790
DA:106,846
DA:107,56
DA:108,84
DA:110,706
DA:115,1997
DA:120,1997
DA:121,84
DA:123,1913
DA:124,1913
DA:126,1913
DA:127,126
DA:129,1787
DA:130,1787
DA:132,1674
DA:133,1554
DA:134,777
DA:135,49
DA:141,728
DA:145,10
DA:148,718
DA:149,718
DA:153,73
DA:157,7752
DA:158,7042
DA:159,3521
DA:160,364
DA:161,3157
DA:164,19
DA:167,3138
DA:168,3138
DA:171,1272
DA:211,100
DA:214,53
DA:216,5
DA:218,48
DA:219,1
DA:221,94
DA:222,5
DA:224,42
DA:225,42
DA:227,42
DA:228,42
DA:229,42
DA:230,42
DA:250,24
DA:252,18
DA:253,4
DA:254,14
LF:83
LH:83
end_of_record
TN:
SF:/home/tbrock/Code/mongo-cxx-driver/src/mongo/base/parse_number.h
FNF:0
FNH:0
DA:50,1171
LF:1
LH:1
end_of_record
TN:
SF:/home/tbrock/Code/mongo-cxx-driver/src/mongo/base/status-inl.h
FN:73,_ZN5mongo6Status5unrefEPNS0_9ErrorInfoE
FNDA:13355812,_ZN5mongo6Status5unrefEPNS0_9ErrorInfoE
FNF:1
FNH:1
DA:25,8376
DA:26,8376
DA:30,3634251
DA:31,3634251
DA:32,3634251
DA:37,9719222
DA:41,5372
DA:45,6694822
DA:49,109
DA:53,206
DA:57,21266
DA:65,9705366
DA:69,3650444
DA:70,18754
DA:73,13355812
DA:74,13374566
DA:75,15636
DA:76,13355812
DA:79,749
LF:19
LH:19
end_of_record
TN:
SF:/home/tbrock/Code/mongo-cxx-driver/src/mongo/base/status.cpp
FN:23,_ZN5mongo6Status9ErrorInfoC2ENS_10ErrorCodes5ErrorERKNS_10StringDataEi
FN:27,_ZN5mongo6Status9ErrorInfo6createENS_10ErrorCodes5ErrorERKNS_10StringDataEi
FN:39,_ZN5mongo6StatusC2ENS_10ErrorCodes5ErrorEPKci
FN:44,_ZNK5mongo6Status7compareERKS0_
FN:50,_ZNK5mongo6StatuseqERKS0_
FN:54,_ZNK5mongo6StatusneERKS0_
FN:58,_ZNK5mongo6Status11compareCodeENS_10ErrorCodes5ErrorE
FN:62,_ZNK5mongo6StatuseqENS_10ErrorCodes5ErrorE
FN:66,_ZNK5mongo6StatusneENS_10ErrorCodes5ErrorE
FNDA:7022,_ZN5mongo6StatusC2ENS_10ErrorCodes5ErrorERKSsi
FNDA:11773,_ZNK5mongo6StatusneERKS0_
FNDA:2572,_ZNK5mongo6StatuseqERKS0_
FNDA:796,_ZN5mongo6StatusC2ENS_10ErrorCodes5ErrorEPKci
FNDA:0,_ZN5mongolsERSoRKNS_6StatusE
FNDA:0,_ZNK5mongo6StatusneENS_10ErrorCodes5ErrorE
FNDA:7818,_ZN5mongo6Status9ErrorInfoC2ENS_10ErrorCodes5ErrorERKNS_10StringDataEi
FNDA:14345,_ZNK5mongo6Status7compareERKS0_
FNDA:766,_ZNK5mongo6Status11compareCodeENS_10ErrorCodes5ErrorE
FNDA:0,_ZNK5mongo6Status8toStringEv
FNDA:109,_ZN5mongolsERSoNS_10ErrorCodes5ErrorE
FNDA:7818,_ZN5mongo6Status9ErrorInfo6createENS_10ErrorCodes5ErrorERKNS_10StringDataEi
FNDA:766,_ZNK5mongo6StatuseqENS_10ErrorCodes5ErrorE
FNF:13
FNH:10
DA:23,7818
DA:24,15636
DA:25,7818
DA:27,7818
DA:28,0
DA:29,7818
DA:30,7818
DA:31,7818
DA:34,7022
DA:35,7022
DA:36,7022
DA:37,7022
DA:39,796
DA:40,796
DA:41,796
DA:42,796
DA:44,14345
DA:46,39323
DA:47,24978
DA:50,2572
DA:51,2572
DA:54,11773
DA:55,11773
DA:58,766
DA:59,766
DA:62,766
DA:63,766
DA:66,0
DA:67,0
DA:70,0
DA:71,0
DA:74,109
DA:75,327
DA:78,0
DA:79,0
DA:80,0
DA:81,0
DA:82,0
DA:83,0
DA:84,0
DA:85,0
LF:41
LH:28
end_of_record
TN:
SF:/home/tbrock/Code/mongo-cxx-driver/src/mongo/base/status.h
FNF:0
FNH:0
DA:109,7818
LF:1
LH:1
end_of_record
TN:
SF:/home/tbrock/Code/mongo-cxx-driver/src/mongo/base/status_with.h
FNF:0
FNH:0
DA:43,137
DA:49,92
DA:56,0
DA:64,27
DA:70,8
LF:5
LH:4
end_of_record
TN:
SF:/home/tbrock/Code/mongo-cxx-driver/src/mongo/base/string_data-inl.h
FN:24,_ZNK5mongo10StringData7compareERKS0_
FN:58,_ZNK5mongo10StringData6copyToEPcb
FN:64,_ZNK5mongo10StringData4findEcm
FN:105,_ZNK5mongo10StringData6substrEmm
FN:121,_ZNK5mongo10StringData8endsWithERKS0_
FNDA:254,_ZNK5mongo10StringData8endsWithERKS0_
FNDA:36405397,_ZNK5mongo10StringData6copyToEPcb
FNDA:4273,_ZNK5mongo10StringData4findEcm
FNDA:1192,_ZNK5mongo10StringData10startsWithERKS0_
FNDA:3041,_ZNK5mongo10StringData6substrEmm
FNDA:11825,_ZNK5mongo10StringData7compareERKS0_
FNF:6
FNH:6
DA:24,11825
DA:29,23650
DA:30,11825
DA:31,9116
DA:33,2709
DA:37,47
DA:58,36405397
DA:59,36405397
DA:60,36405397
DA:61,33746296
DA:62,36405397
DA:64,4273
DA:65,4273
DA:68,7948
DA:69,3974
DA:71,1890
DA:105,3041
DA:106,3041
DA:107,0
DA:110,3041
DA:111,910
DA:113,3041
DA:116,1192
DA:118,2384
DA:121,254
DA:123,254
DA:124,254
DA:125,254
DA:127,508
LF:29
LH:28
end_of_record
TN:
SF:/home/tbrock/Code/mongo-cxx-driver/src/mongo/base/string_data.cpp
FN:36,_ZN5mongo12_GLOBAL__N_17murmur3ILi8EEEmRKNS_10StringDataE
FN:44,_ZN5mongolsERSoRKNS_10StringDataE
FN:48,_ZNK5mongo10StringData6HasherclERKS0_
FNDA:80,_ZNK5mongo10StringData6HasherclERKS0_
FNDA:408,_ZN5mongolsERSoRKNS_10StringDataE
FNDA:80,_ZN5mongo12_GLOBAL__N_17murmur3ILi8EEEmRKNS_10StringDataE
FNF:3
FNH:3
DA:36,160
DA:38,160
DA:39,80
DA:44,816
DA:45,816
DA:48,80
DA:49,80
LF:7
LH:7
end_of_record
TN:
SF:/home/tbrock/Code/mongo-cxx-driver/src/mongo/base/string_data.h
FN:122,_ZNK5mongo10StringData8toStringEv
FNDA:8103,_ZNK5mongo10StringData8toStringEv
FNF:1
FNH:1
DA:46,2437595
DA:53,35924629
DA:61,2424382
DA:65,1332020
DA:74,2169
DA:122,106763888
DA:124,16206
DA:125,175499
DA:142,471
DA:143,3260
DA:150,106787657
DA:151,35924451
DA:157,11659
DA:161,166
LF:14
LH:14
end_of_record
TN:
SF:/home/tbrock/Code/mongo-cxx-driver/src/mongo/bson/bson-inl.h
FN:37,_ZN5mongo20compareElementValuesERKNS_11BSONElementES2_
FN:153,_ZNK5mongo11BSONElement9woCompareERKS0_b
FN:173,_ZNK5mongo11BSONElement23embeddedObjectUserCheckEv
FN:182,_ZNK5mongo11BSONElement14embeddedObjectEv
FN:187,_ZNK5mongo11BSONElement16codeWScopeObjectEv
FN:194,_ZNK5mongo7BSONObj5equalERKS0_
FN:208,_ZNK5mongo7BSONObj14_assertInvalidEv
FN:225,_ZNK5mongo7BSONObj4copyEv
FN:232,_ZNK5mongo7BSONObj8getOwnedEv
FN:265,_ZNK5mongo7BSONObj8getFieldERKNS_10StringDataE
FN:275,_ZNK5mongo7BSONObj11getIntFieldERKNS_10StringDataE
FN:280,_ZNK5mongo7BSONObj12getBoolFieldERKNS_10StringDataE
FN:285,_ZNK5mongo7BSONObj14getStringFieldERKNS_10StringDataE
FN:291,_ZN5mongo14BSONObjBuilder14appendElementsENS_7BSONObjE
FN:338,_ZN5mongo25BSONObjBuilderValueStreamlsINS_9BSONArrayEEERNS_14BSONObjBuilderET_
FN:338,_ZN5mongo25BSONObjBuilderValueStreamlsINS_6OpTimeEEERNS_14BSONObjBuilderET_
FN:338,_ZN5mongo25BSONObjBuilderValueStreamlsISsEERNS_14BSONObjBuilderET_
FN:338,_ZN5mongo25BSONObjBuilderValueStreamlsINS_7BSONObjEEERNS_14BSONObjBuilderET_
FN:366,_ZN5mongo25BSONObjBuilderValueStream8endFieldERKNS_10StringDataE
FN:375,_ZN5mongo25BSONObjBuilderValueStream6subobjEv
FN:382,_ZN5mongo7LabelerlsIdEERNS_14BSONObjBuilderET_
FN:382,_ZN5mongo7LabelerlsIPKcEERNS_14BSONObjBuilderET_
FN:382,_ZN5mongo7LabelerlsIiEERNS_14BSONObjBuilderET_
FN:395,_ZN5mongo13nested2dottedERKNS_7BSONObjE
FN:403,_ZN5mongo13dotted2nestedERKNS_7BSONObjE
FN:429,_ZN5mongo8bson2mapERKNS_7BSONObjE
FN:454,_ZNK5mongo7BSONObj8toStringEbb
FN:460,_ZNK5mongo7BSONObj8toStringERNS_17StringBuilderImplINS_16TrivialAllocatorEEEbbi
FN:491,_ZNK5mongo11BSONElement4sizeEi
FN:573,_ZNK5mongo11BSONElement4sizeEv
FN:639,_ZNK5mongo11BSONElement8toStringEbb
FN:644,_ZNK5mongo11BSONElement8toStringERNS_17StringBuilderImplINS_16TrivialAllocatorEEEbbi
FN:759,_ZNK5mongo7BSONObj14getFieldDottedERKNS_10StringDataE
FN:774,_ZNK5mongo7BSONObj14getObjectFieldERKNS_10StringDataE
FN:780,_ZNK5mongo7BSONObj7nFieldsEv
FN:801,_ZNK5mongo11BSONElementixERKSs
FN:864,_ZN5mongolsERSoRKNS_7BSONObjE
FN:868,_ZN5mongolsERSoRKNS_11BSONElementE
FN:885,_ZNK5mongo9BSONFieldIiE5queryEPKcRKi
FN:892,_ZN5mongo6escapeERKSsb
FN:934,_ZNK5mongo7BSONObj7hexDumpEv
FNDA:2,_ZN5mongo25BSONObjBuilderValueStreamlsINS_6OpTimeEEERNS_14BSONObjBuilderET_
FNDA:0,_ZN5mongolsERSoRKNS_11BSONElementE
FNDA:6,_ZNK5mongo7BSONObj14getStringFieldERKNS_10StringDataE
FNDA:100006,_ZNK5mongo7BSONObj8toStringEbb
FNDA:4,_ZN5mongo8bson2mapERKNS_7BSONObjE
FNDA:52,_ZNK5mongo11BSONElementixERKSs
FNDA:182,_ZNK5mongo7BSONObj8getOwnedEv
FNDA:5212,_ZNK5mongo7BSONObj4copyEv
FNDA:0,_ZNK5mongo7BSONObj12getBoolFieldERKNS_10StringDataE
FNDA:366,_ZNK5mongo11BSONElement23embeddedObjectUserCheckEv
FNDA:479,_ZNK5mongo7BSONObj14getObjectFieldERKNS_10StringDataE
FNDA:26,_ZNK5mongo7BSONObj14getFieldDottedERKNS_10StringDataE
FNDA:2614,_ZN5mongo20compareElementValuesERKNS_11BSONElementES2_
FNDA:0,_ZNK5mongo7BSONObj7hexDumpEv
FNDA:400742,_ZNK5mongo11BSONElement4sizeEi
FNDA:2,_ZNK5mongo11BSONElement16codeWScopeObjectEv
FNDA:53,_ZN5mongo25BSONObjBuilderValueStreamlsINS_9BSONArrayEEERNS_14BSONObjBuilderET_
FNDA:1,_ZNK5mongo7BSONObj14_assertInvalidEv
FNDA:919846,_ZN5mongo6escapeERKSsb
FNDA:4,_ZN5mongo13nested2dottedERKNS_7BSONObjE
FNDA:2838,_ZNK5mongo7BSONObj8getFieldERKNS_10StringDataE
FNDA:11,_ZN5mongo7LabelerlsIiEERNS_14BSONObjBuilderET_
FNDA:9,_ZNK5mongo11BSONElement8toStringEbb
FNDA:4,_ZN5mongo13dotted2nestedERKNS_7BSONObjE
FNDA:2706,_ZNK5mongo11BSONElement9woCompareERKS0_b
FNDA:2631162,_ZNK5mongo11BSONElement4sizeEv
FNDA:2,_ZNK5mongo9BSONFieldIiE5queryEPKcRKi
FNDA:107,_ZN5mongo25BSONObjBuilderValueStreamlsINS_7BSONObjEEERNS_14BSONObjBuilderET_
FNDA:186977,_ZNK5mongo11BSONElement14embeddedObjectEv
FNDA:6,_ZN5mongo7LabelerlsIPKcEERNS_14BSONObjBuilderET_
FNDA:1,_ZNK5mongo7BSONObj11getIntFieldERKNS_10StringDataE
FNDA:79,_ZN5mongo25BSONObjBuilderValueStreamlsISsEERNS_14BSONObjBuilderET_
FNDA:10058,_ZNK5mongo7BSONObj7nFieldsEv
FNDA:36,_ZNK5mongo7BSONObj5equalERKS0_
FNDA:18633,_ZN5mongo25BSONObjBuilderValueStream8endFieldERKNS_10StringDataE
FNDA:0,_ZN5mongolsERSoRKNS_7BSONObjE
FNDA:300440,_ZNK5mongo11BSONElement8toStringERNS_17StringBuilderImplINS_16TrivialAllocatorEEEbbi
FNDA:32,_ZN5mongo14BSONObjBuilder14appendElementsENS_7BSONObjE
FNDA:2,_ZN5mongo7LabelerlsIdEERNS_14BSONObjBuilderET_
FNDA:30,_ZN5mongo25BSONObjBuilderValueStream6subobjEv
FNDA:100418,_ZNK5mongo7BSONObj8toStringERNS_17StringBuilderImplINS_16TrivialAllocatorEEEbbi
FNF:41
FNH:37
DA:37,2858
DA:40,5228
DA:46,48
DA:47,24
DA:48,24
DA:50,50
DA:53,40
DA:55,38
DA:58,45
DA:59,45
DA:60,45
DA:62,45
DA:65,60
DA:66,30
DA:67,30
DA:68,30
DA:69,30
DA:70,0
DA:74,428
DA:75,205
DA:76,205
DA:77,205
DA:78,191
DA:84,54
DA:85,54
DA:86,54
DA:88,51
DA:90,13
DA:91,6
DA:95,68
DA:102,1834
DA:103,1834
DA:104,1834
DA:105,5502
DA:106,1834
DA:109,247
DA:113,1048
DA:115,2
DA:116,2
DA:117,2
DA:118,6
DA:121,44
DA:122,44
DA:123,44
DA:124,132
DA:127,33
DA:128,33
DA:130,33
DA:133,4
DA:134,2
DA:136,2
DA:137,2
DA:139,2
DA:140,2
DA:141,0
DA:145,0
DA:153,2706
DA:155,2706
DA:156,2706
DA:157,2706
DA:158,2794
DA:160,2619
DA:161,5160
DA:162,2580
DA:165,2614
DA:166,2614
DA:173,366
DA:174,366
DA:175,366
DA:176,0
DA:177,0
DA:178,0
DA:182,186977
DA:183,186977
DA:184,373954
DA:187,2
DA:188,4
DA:189,2
DA:190,4
DA:194,36
DA:198,62
DA:200,92
DA:201,92
DA:202,92
DA:203,30
DA:208,1
DA:210,1
DA:211,9
DA:212,4
DA:213,4
DA:215,1
DA:216,4
DA:219,3
DA:225,5212
DA:226,5212
DA:228,5212
DA:229,5212
DA:232,182
DA:233,182
DA:234,158
DA:235,24
DA:265,2838
DA:267,10856
DA:268,10147
DA:269,20294
DA:270,2129
DA:272,709
DA:275,1
DA:276,1
DA:277,2
DA:280,0
DA:281,0
DA:282,0
DA:285,6
DA:286,6
DA:287,15
DA:291,32
DA:292,32
DA:294,30
DA:295,60
DA:296,32
DA:320,200043
DA:321,199986
DA:333,13286
DA:334,6643
DA:338,241
DA:339,12211
DA:340,12049
DA:341,1869
DA:345,17
DA:346,17
DA:347,3
DA:366,18633
DA:367,18633
DA:368,11
DA:369,22
DA:370,11
DA:372,18633
DA:373,18633
DA:375,30
DA:376,30
DA:377,11
DA:378,60
DA:382,19
DA:383,38
DA:384,19
DA:395,4
DA:396,4
DA:397,8
DA:398,4
DA:403,4
DA:404,4
DA:405,4
DA:406,4
DA:410,4
DA:411,4
DA:429,4
DA:432,14
DA:433,10
DA:434,20
DA:436,4
DA:454,100006
DA:455,100006
DA:457,100006
DA:458,100006
DA:460,501160
DA:461,100418
DA:462,4
DA:463,100318
DA:466,200832
DA:470,400742
DA:471,400742
DA:472,400742
DA:473,400742
DA:474,801484
DA:475,801484
DA:476,400742
DA:477,801484
DA:478,400742
DA:479,100314
DA:480,100314
DA:482,300428
DA:485,200012
DA:486,300428
DA:488,500954
DA:491,701170
DA:492,400742
DA:495,300428
DA:497,300428
DA:498,600856
DA:506,0
DA:507,0
DA:509,100007
DA:510,100007
DA:515,4
DA:516,4
DA:518,0
DA:519,0
DA:523,200009
DA:524,200009
DA:525,200009
DA:527,0
DA:528,0
DA:529,0
DA:532,0
DA:533,0
DA:534,0
DA:537,408
DA:538,408
DA:539,408
DA:541,0
DA:542,0
DA:543,0
DA:545,0
DA:546,0
DA:548,0
DA:550,0
DA:551,0
DA:553,0
DA:554,0
DA:555,0
DA:558,0
DA:560,0
DA:563,0
DA:564,0
DA:565,0
DA:568,300428
DA:570,300428
DA:573,3461653
DA:574,2631162
DA:577,830491
DA:578,1660982
DA:586,3586
DA:587,3586
DA:589,263334
DA:590,263334
DA:595,738
DA:596,738
DA:598,189
DA:599,189
DA:603,375809
DA:604,375809
DA:606,13
DA:607,13
DA:611,186399
DA:612,186399
DA:614,129
DA:615,129
DA:618,113
DA:619,113
DA:620,113
DA:622,113
DA:623,113
DA:625,113
DA:629,0
DA:630,0
DA:631,0
DA:634,830491
DA:636,830491
DA:639,9
DA:641,9
DA:642,18
DA:644,901304
DA:646,300440
DA:648,2
DA:650,2
DA:652,4
DA:654,1
DA:655,300339
DA:658,901290
DA:659,901278
DA:660,600876
DA:662,0
DA:663,0
DA:665,0
DA:666,0
DA:668,0
DA:669,0
DA:670,0
DA:674,11
DA:675,11
DA:677,1
DA:680,100010
DA:683,0
DA:684,0
DA:686,808
DA:687,303
DA:689,8
DA:690,4
DA:692,0
DA:693,0
DA:695,0
DA:696,0
DA:698,0
DA:699,0
DA:701,0
DA:702,0
DA:704,0
DA:705,0
DA:706,0
DA:708,2
DA:709,0
DA:710,0
DA:713,2
DA:718,200007
DA:719,400014
DA:720,0
DA:721,0
DA:724,400014
DA:725,200007
DA:729,0
DA:731,0
DA:732,0
DA:734,0
DA:736,0
DA:737,0
DA:738,0
DA:740,0
DA:741,0
DA:743,0
DA:744,0
DA:748,0
DA:749,0
DA:751,0
DA:752,0
DA:759,26
DA:760,26
DA:761,26
DA:762,17
DA:763,17
DA:764,14
DA:765,14
DA:766,14
DA:767,20
DA:771,12
DA:774,479
DA:775,479
DA:776,958
DA:777,958
DA:780,10058
DA:781,10058
DA:783,50132
DA:784,50132
DA:785,50132
DA:787,40074
DA:789,10058
DA:792,4292
DA:798,4293
DA:801,357
DA:803,52
DA:805,104
DA:864,0
DA:865,0
DA:868,0
DA:869,0
DA:873,0
DA:877,3
DA:885,2
DA:886,2
DA:887,4
DA:888,4
DA:892,919846
DA:894,7240992
DA:895,2240727
DA:897,41
DA:898,41
DA:900,6
DA:901,6
DA:903,14
DA:904,7
DA:906,7
DA:907,7
DA:909,4
DA:910,4
DA:912,7
DA:913,7
DA:915,4
DA:916,4
DA:918,8
DA:919,8
DA:921,2240643
DA:923,14
DA:924,56
DA:927,2240629
DA:931,1839692
DA:934,0
DA:935,0
DA:936,0
DA:937,0
DA:938,0
DA:939,0
DA:941,0
DA:942,0
DA:943,0
DA:944,0
DA:947,0
LF:396
LH:303
end_of_record
TN:
SF:/home/tbrock/Code/mongo-cxx-driver/src/mongo/bson/bson_db.h
FN:51,_ZNK5mongo11BSONElement7_opTimeEv
FN:57,_ZNK5mongo11BSONElement7_asCodeEv
FN:71,_ZN5mongo25BSONObjBuilderValueStreamlsERKNS_14DateNowLabelerE.isra.72
FN:71,_ZN5mongo25BSONObjBuilderValueStreamlsERKNS_14DateNowLabelerE.isra.159
FNDA:13,_ZN5mongo25BSONObjBuilderValueStreamlsERKNS_14DateNowLabelerE.isra.72
FNDA:1,_ZN5mongo25BSONObjBuilderValueStreamlsERKNS_14DateNowLabelerE.isra.159
FNDA:1,_ZNK5mongo11BSONElement7_opTimeEv
FNDA:4,_ZNK5mongo11BSONElement7_asCodeEv
FNF:4
FNH:4
DA:41,49
DA:42,49
DA:47,9
DA:51,1
DA:52,2
DA:53,1
DA:57,4
DA:58,8
DA:61,4
DA:63,2
DA:65,0
DA:67,0
DA:71,14
DA:72,14
DA:73,14
DA:74,14
DA:78,2
DA:79,2
DA:80,1
DA:84,2
DA:85,2
DA:86,1
DA:91,3
DA:92,3
DA:93,2
DA:97,3
DA:98,3
DA:99,2
LF:28
LH:26
end_of_record
TN:
SF:/home/tbrock/Code/mongo-cxx-driver/src/mongo/bson/bson_field.h
FN:61,_ZN5mongo14BSONFieldValueISsED2Ev
FN:61,_ZN5mongo14BSONFieldValueINS_7BSONObjEED2Ev
FN:63,_ZN5mongo14BSONFieldValueISsEC2ERKSsS3_
FN:75,_ZN5mongo9BSONFieldISsED2Ev
FNDA:185,_ZN5mongo14BSONFieldValueISsEC2ERKSsS3_
FNDA:2,_ZN5mongo14BSONFieldValueINS_9BSONArrayEED2Ev
FNDA:28,_ZN5mongo9BSONFieldINS_7BSONObjEED2Ev
FNDA:185,_ZN5mongo14BSONFieldValueISsED2Ev
FNDA:28,_ZN5mongo9BSONFieldINS_9BSONArrayEED2Ev
FNDA:140,_ZN5mongo9BSONFieldISsED2Ev
FNDA:2,_ZN5mongo14BSONFieldValueINS_7BSONObjEED2Ev
FNF:7
FNH:7
DA:61,570
DA:63,185
DA:64,192
DA:75,592
DA:78,406
DA:84,1
DA:88,189
DA:110,1
DA:118,1
LF:9
LH:9
end_of_record
TN:
SF:/home/tbrock/Code/mongo-cxx-driver/src/mongo/bson/bson_validate.cpp
FN:33,_ZN5mongo12_GLOBAL__N_19makeErrorESsNS_11BSONElementE
FN:46,_ZN5mongo12validateBSONEPKcm
FN:51,_ZN5mongo12_GLOBAL__N_119validateElementInfoEPNS0_6BufferEPNS0_15ValidationState5StateENS_11BSONElementE
FN:51,_ZN5mongo12_GLOBAL__N_16Buffer14readUTF8StringEPNS_10StringDataE
FN:51,_ZN5mongo12_GLOBAL__N_121validateBSONIterativeEPNS0_6BufferE
FN:61,_ZN5mongo12_GLOBAL__N_16Buffer11readCStringEPNS_10StringDataE
FN:366,_Z41__static_initialization_and_destruction_0ii
FN:366,_GLOBAL__sub_I_bson_validate.cpp
FNDA:3025759,_ZN5mongo12_GLOBAL__N_119validateElementInfoEPNS0_6BufferEPNS0_15ValidationState5StateENS_11BSONElementE
FNDA:1208281,_ZN5mongo12_GLOBAL__N_16Buffer14readUTF8StringEPNS_10StringDataE
FNDA:6682,_ZN5mongo12_GLOBAL__N_19makeErrorESsNS_11BSONElementE
FNDA:28,_Z41__static_initialization_and_destruction_0ii
FNDA:2424354,_ZN5mongo12_GLOBAL__N_16Buffer11readCStringEPNS_10StringDataE
FNDA:10473,_ZN5mongo12_GLOBAL__N_121validateBSONIterativeEPNS0_6BufferE
FNDA:28,_GLOBAL__sub_I_bson_validate.cpp
FNDA:10473,_ZN5mongo12validateBSONEPKcm
FNF:8
FNH:8
DA:33,6682
DA:34,6682
DA:38,3
DA:40,6682
DA:46,10473
DA:51,6056845
DA:53,616178
DA:54,6056834
DA:55,6056834
DA:57,6056834
DA:61,2424354
DA:62,4848708
DA:63,2424354
DA:64,10
DA:65,2424349
DA:67,2424349
DA:68,2424349
DA:70,2424349
DA:71,2424298
DA:76,2416558
DA:78,1208281
DA:79,8
DA:81,1208277
DA:82,0
DA:85,3624831
DA:86,3362
DA:89,1206596
DA:90,0
DA:92,1206596
DA:93,1522
DA:99,1815392
DA:115,7
DA:138,601467
DA:142,616181
DA:146,33
DA:149,616148
DA:161,3632841
DA:167,3025759
DA:168,6
DA:170,3025756
DA:171,601455
DA:176,4848602
DA:177,2424301
DA:180,2424298
DA:188,90
DA:189,0
DA:193,1820868
DA:194,4
DA:198,39
DA:199,0
DA:207,249
DA:208,0
DA:212,38
DA:213,19
DA:215,6
DA:219,54
DA:220,27
DA:222,52
DA:223,26
DA:231,2416460
DA:232,1208230
DA:238,28
DA:239,2
DA:240,54
DA:241,24
DA:245,33
DA:249,605660
DA:253,6350
DA:257,4279231
DA:259,1198098
DA:265,3631052
DA:266,3627261
DA:268,616148
DA:269,616148
DA:270,616148
DA:272,1232296
DA:273,4
DA:278,3025759
DA:280,3025759
DA:281,14
DA:282,7
DA:283,7
DA:286,3025759
DA:287,3025759
DA:288,3025759
DA:289,3025759
DA:294,5438809
DA:295,25344
DA:296,7
DA:300,3020132
DA:304,1804365
DA:305,601455
DA:306,2066
DA:309,600422
DA:313,596631
DA:314,596631
DA:317,596619
DA:322,33
DA:323,33
DA:324,33
DA:326,66
DA:327,2
DA:328,32
DA:329,32
DA:331,15
DA:335,36
DA:336,12
DA:338,4
DA:341,10
DA:342,0
DA:343,10
DA:344,10
DA:345,10
DA:357,10473
DA:358,10473
DA:359,0
DA:363,10473
DA:366,84
LF:118
LH:111
end_of_record
TN:
SF:/home/tbrock/Code/mongo-cxx-driver/src/mongo/bson/bsonelement.h
FN:69,_ZNK5mongo11BSONElement6StringEv
FN:70,_ZNK5mongo11BSONElement4DateEv
FN:74,_ZNK5mongo11BSONElement3IntEv
FN:75,_ZNK5mongo11BSONElement4BoolEv
FN:112,_ZNK5mongo11BSONElement11binDataTypeEv
FN:112,_ZNK5mongo11BSONElement13fieldNameSizeEv
FN:112,_ZNK5mongo11BSONElement9numberIntEv
FN:112,_ZNK5mongo11BSONElement7binDataERi
FN:112,_ZNK5mongo11BSONElement19fieldNameStringDataEv
FN:112,_ZNK5mongo11BSONElement10numberLongEv
FN:112,_ZNK5mongo11BSONElement5regexEv
FN:112,_ZNK5mongo11BSONElement3strEv
FN:112,_ZNK5mongo11BSONElement14codeWScopeCodeEv
FN:112,_ZNK5mongo11BSONElement3chkEi
FN:112,_ZNK5mongo11BSONElement12numberDoubleEv
FN:112,_ZNK5mongo11BSONElement9trueValueEv
FN:112,_ZNK5mongo11BSONElement14safeNumberLongEv
FN:112,_ZN5mongo11BSONElementC2EPKci
FN:163,_ZNK5mongo11BSONElement13timestampTimeEv
FN:163,_ZNK5mongo11BSONElement12binDataCleanERi
FN:166,_ZNK5mongo11BSONElement9valuesizeEv
FN:288,_ZNK5mongo11BSONElement25codeWScopeScopeDataUnsafeEv
FN:345,_ZNK5mongo11BSONElement10regexFlagsEv
FNDA:52,_ZNK5mongo11BSONElement10numberLongEv
FNDA:622,_ZNK5mongo11BSONElement6StringEv
FNDA:244,_ZNK5mongo11BSONElement19fieldNameStringDataEv
FNDA:4,_ZNK5mongo11BSONElement25codeWScopeScopeDataUnsafeEv
FNDA:4,_ZNK5mongo11BSONElement7binDataERi
FNDA:100,_ZNK5mongo11BSONElement10regexFlagsEv
FNDA:19,_ZNK5mongo11BSONElement13timestampTimeEv
FNDA:4,_ZNK5mongo11BSONElement11binDataTypeEv
FNDA:4375781,_ZNK5mongo11BSONElement13fieldNameSizeEv
FNDA:93,_ZNK5mongo11BSONElement9numberIntEv
FNDA:5,_ZNK5mongo11BSONElement14safeNumberLongEv
FNDA:1009,_ZNK5mongo11BSONElement9trueValueEv
FNDA:400742,_ZN5mongo11BSONElementC2EPKci
FNDA:3,_ZNK5mongo11BSONElement4BoolEv
FNDA:721,_ZNK5mongo11BSONElement3chkEi
FNDA:546420,_ZNK5mongo11BSONElement12numberDoubleEv
FNDA:6,_ZNK5mongo11BSONElement3IntEv
FNDA:14,_ZNK5mongo11BSONElement14codeWScopeCodeEv
FNDA:4,_ZNK5mongo11BSONElement12binDataCleanERi
FNDA:200,_ZNK5mongo11BSONElement5regexEv
FNDA:81,_ZNK5mongo11BSONElement9valuesizeEv
FNDA:1059,_ZNK5mongo11BSONElement3strEv
FNDA:90,_ZNK5mongo11BSONElement4DateEv
FNF:23
FNH:23
DA:69,622
DA:70,180
DA:74,12
DA:75,6
DA:112,10665943
DA:120,10902
DA:125,7493626
DA:144,2181321
DA:145,2181319
DA:151,4375781
DA:152,4375781
DA:153,830497
DA:154,4375781
DA:157,244
DA:158,488
DA:163,2944108
DA:166,81
DA:167,81
DA:170,4
DA:176,746
DA:186,224
DA:201,187
DA:203,100560
DA:205,114
DA:228,546403
DA:244,1348428
DA:249,186895
DA:264,1059
DA:265,5185
DA:269,14
DA:270,28
DA:271,14
DA:288,4
DA:290,4
DA:312,4
DA:314,8
DA:315,4
DA:316,4
DA:319,4
DA:321,4
DA:322,4
DA:326,0
DA:327,0
DA:331,4
DA:333,8
DA:334,4
DA:335,4
DA:339,200
DA:340,400
DA:341,200
DA:345,100
DA:346,100
DA:347,100
DA:359,320
DA:380,45
DA:381,45
DA:392,187606
DA:393,375266
DA:402,19
DA:403,19
DA:404,19
DA:407,18
DA:435,400742
DA:436,400742
DA:437,100314
DA:438,100314
DA:441,300428
DA:442,300428
DA:443,300428
DA:444,901284
DA:445,300428
DA:446,300428
DA:449,400742
DA:451,1028109
DA:452,1028109
DA:453,1068470
DA:454,1068284
DA:455,197620
DA:456,197620
DA:486,721
DA:487,1442
DA:489,0
DA:490,0
DA:492,0
DA:493,0
DA:495,721
DA:503,1009
DA:505,2018
DA:507,0
DA:509,99
DA:511,22
DA:513,725
DA:522,0
DA:526,142
DA:527,144
DA:552,546420
DA:553,1092840
DA:555,184
DA:557,546229
DA:559,7
DA:566,93
DA:567,186
DA:569,0
DA:571,92
DA:573,0
DA:580,52
DA:581,104
DA:583,3
DA:585,21
DA:587,28
DA:598,5
DA:600,10
DA:602,4
DA:603,4
DA:606,3
DA:609,2
DA:613,3
DA:619,14423
DA:620,14423
DA:621,14423
LF:120
LH:110
end_of_record
TN:
SF:/home/tbrock/Code/mongo-cxx-driver/src/mongo/bson/bsonmisc.h
FN:201,_ZN5mongo25BSONObjBuilderValueStreamD2Ev
FNDA:6643,_ZN5mongo25BSONObjBuilderValueStreamD2Ev
FNF:1
FNH:1
DA:31,31
DA:35,11
DA:37,11
DA:39,11
DA:123,28
DA:143,2
DA:149,2
DA:154,6
DA:155,2
DA:162,2
DA:169,2
DA:177,3
DA:201,6643
DA:222,20
DA:236,18663
DA:256,0
DA:257,0
LF:17
LH:15
end_of_record
TN:
SF:/home/tbrock/Code/mongo-cxx-driver/src/mongo/bson/bsonobj.h
FN:92,_ZN5mongo7BSONObjC2EPNS0_6HolderE
FN:101,_ZN5mongo7BSONObjD2Ev
FN:101,_ZN5mongo9BSONArrayD2Ev
FN:101,_ZNK5mongo7BSONObjgtERKS0_
FN:101,_ZNK5mongo7BSONObjltERKS0_
FN:101,_ZNK5mongo7BSONObjleERKS0_
FN:101,_ZNK5mongo7BSONObjgeERKS0_
FN:210,_ZNK5mongo7BSONObjixEi
FN:272,_ZN5mongo7BSONObj4initEPNS0_6HolderE
FN:272,_ZNK5mongo7BSONObj11binaryEqualERKS0_
FN:272,_ZNK5mongo7BSONObj22appendSelfToBufBuilderERNS_11_BufBuilderINS_16TrivialAllocatorEEE
FN:293,_ZNK5mongo7BSONObj18okForStorageAsRootEv
FN:513,_ZN5mongo7BSONObjC2ERKS0_
FN:514,_ZN5mongo21intrusive_ptr_releaseEPNS_7BSONObj6HolderE
FNDA:100221,_ZNK5mongo7BSONObj22appendSelfToBufBuilderERNS_11_BufBuilderINS_16TrivialAllocatorEEE
FNDA:41,_ZNK5mongo7BSONObj18okForStorageAsRootEv
FNDA:10130,_ZN5mongo7BSONObjC2EPNS0_6HolderE
FNDA:108980,_ZN5mongo7BSONObjC2ERKS0_
FNDA:1,_ZNK5mongo7BSONObjixEi
FNDA:145,_ZNK5mongo7BSONObj11binaryEqualERKS0_
FNDA:1,_ZNK5mongo7BSONObjgeERKS0_
FNDA:1443,_ZNK5mongo7BSONObjltERKS0_
FNDA:119214,_ZN5mongo21intrusive_ptr_releaseEPNS_7BSONObj6HolderE
FNDA:1,_ZNK5mongo7BSONObjleERKS0_
FNDA:10130,_ZN5mongo7BSONObj4initEPNS0_6HolderE
FNDA:224,_ZN5mongo7BSONObjD2Ev
FNDA:56,_ZN5mongo9BSONArrayD2Ev
FNDA:4,_ZNK5mongo7BSONObjgtERKS0_
FNF:14
FNH:14
DA:83,189913
DA:92,10130
DA:93,10130
DA:94,10130
DA:101,313535
DA:102,313311
DA:103,224
DA:133,182
DA:207,1869
DA:210,1
DA:213,1
DA:214,3
DA:218,440
DA:272,2042954
DA:293,41
DA:294,123
DA:322,38
DA:345,4329
DA:346,3
DA:347,12
DA:348,3
DA:376,145
DA:377,145
DA:378,145
DA:379,123
DA:385,338
DA:390,106
DA:391,106
DA:392,106
DA:432,33
DA:495,100221
DA:496,100221
DA:497,100221
DA:498,100221
DA:510,5212
DA:513,119216
DA:514,119214
DA:518,357642
DA:524,10128
DA:526,119214
DA:530,108980
DA:531,108980
DA:532,108980
DA:535,1773
DA:536,2212
DA:537,2212
DA:561,10130
DA:562,10130
DA:563,10130
DA:564,10130
DA:566,200043
DA:567,199986
DA:568,1
DA:587,1345
DA:589,86
DA:590,291
LF:56
LH:56
end_of_record
TN:
SF:/home/tbrock/Code/mongo-cxx-driver/src/mongo/bson/bsonobjbuilder.h
FN:54,_ZN5mongo14BSONObjBuilderC2Ei
FN:62,_ZN5mongo14BSONObjBuilderC2ERNS_11_BufBuilderINS_16TrivialAllocatorEEE
FN:71,_ZN5mongo14BSONObjBuilderD2Ev
FN:84,_ZN5mongo14BSONObjBuilder6appendERKNS_11BSONElementE
FN:91,_ZN5mongo14BSONObjBuilder8appendAsERKNS_11BSONElementERKNS_10StringDataE
FN:100,_ZN5mongo14BSONObjBuilder6appendERKNS_10StringDataENS_7BSONObjE
FN:133,_ZN5mongo14BSONObjBuilder11subobjStartERKNS_10StringDataE.isra.165
FN:133,_ZN5mongo14BSONObjBuilder11subobjStartERKNS_10StringDataE.isra.123
FN:133,_ZN5mongo14BSONObjBuilder11subobjStartERKNS_10StringDataE.isra.54
FN:133,_ZN5mongo14BSONObjBuilder11subobjStartERKNS_10StringDataE.isra.128
FN:133,_ZN5mongo14BSONObjBuilder11subobjStartERKNS_10StringDataE.isra.182
FN:142,_ZN5mongo14BSONObjBuilder11appendArrayERKNS_10StringDataERKNS_7BSONObjE
FN:154,_ZN5mongo14BSONObjBuilder13subarrayStartERKNS_10StringDataE.isra.55
FN:154,_ZN5mongo14BSONObjBuilder13subarrayStartERKNS_10StringDataE.isra.56
FN:154,_ZN5mongo14BSONObjBuilder13subarrayStartERKNS_10StringDataE.isra.336
FN:154,_ZN5mongo14BSONObjBuilder13subarrayStartERKNS_10StringDataE.isra.129
FN:161,_ZN5mongo14BSONObjBuilder10appendBoolERKNS_10StringDataEi
FN:169,_ZN5mongo14BSONObjBuilder6appendERKNS_10StringDataEb
FN:177,_ZN5mongo14BSONObjBuilder6appendERKNS_10StringDataEi
FN:190,_ZN5mongo14BSONObjBuilder6appendERKNS_10StringDataEx
FN:198,_ZN5mongo14BSONObjBuilder13appendIntOrLLERKNS_10StringDataEx
FN:223,_ZN5mongo14BSONObjBuilder12appendNumberERKNS_10StringDataEm
FN:233,_ZN5mongo14BSONObjBuilder12appendNumberERKNS_10StringDataEx
FN:253,_ZN5mongo14BSONObjBuilder6appendERKNS_10StringDataEd
FN:269,_ZN5mongo14BSONObjBuilder9appendOIDERKNS_10StringDataEPNS_3OIDEb
FN:290,_ZN5mongo14BSONObjBuilder6appendERKNS_10StringDataENS_3OIDE
FN:309,_ZN5mongo14BSONObjBuilder11appendTimeTERKNS_10StringDataEl
FN:319,_ZN5mongo14BSONObjBuilder10appendDateERKNS_10StringDataENS_6Date_tE
FN:334,_ZN5mongo16BSONArrayBuilderlsINS_6Date_tEEERS0_RKT_
FN:341,_ZN5mongo14BSONObjBuilder11appendRegexERKNS_10StringDataES3_S3_
FN:350,_ZN5mongo16BSONArrayBuilderlsINS_9BSONRegExEEERS0_RKT_
FN:353,_ZN5mongo14BSONObjBuilder10appendCodeERKNS_10StringDataES3_
FN:362,_ZN5mongo16BSONArrayBuilderlsINS_8BSONCodeEEERS0_RKT_
FN:367,_ZN5mongo14BSONObjBuilder6appendERKNS_10StringDataEPKci
FN:375,_ZN5mongo14BSONObjBuilder6appendERKNS_10StringDataEPKc
FN:380,_ZN5mongo14BSONObjBuilderlsISsEERS0_RKNS_14BSONFieldValueIT_EE
FN:380,_ZN5mongo14BSONObjBuilder6appendISsEERS0_RKNS_10StringDataERKSt6vectorIT_SaIS7_EE
FN:383,_ZN5mongo14BSONObjBuilder6appendERKNS_10StringDataES3_
FN:391,_ZN5mongo14BSONObjBuilder12appendSymbolERKNS_10StringDataES3_
FN:400,_ZN5mongo16BSONArrayBuilderlsINS_10BSONSymbolEEERS0_RKT_
FN:409,_ZN5mongo14BSONObjBuilder10appendNullERKNS_10StringDataE
FN:416,_ZN5mongo14BSONObjBuilder12appendMinKeyERKNS_10StringDataE
FN:422,_ZN5mongo14BSONObjBuilder12appendMaxKeyERKNS_10StringDataE
FN:429,_ZN5mongo14BSONObjBuilder15appendTimestampERKNS_10StringDataE
FN:449,_ZN5mongo14BSONObjBuilder15appendTimestampERKNS_10StringDataEy
FN:467,_ZN5mongo14BSONObjBuilder11appendDBRefERKNS_10StringDataES3_RKNS_3OIDE
FN:477,_ZN5mongo16BSONArrayBuilderlsINS_9BSONDBRefEEERS0_RKT_
FN:487,_ZN5mongo14BSONObjBuilder13appendBinDataERKNS_10StringDataEiNS_11BinDataTypeEPKv
FN:497,_ZN5mongo16BSONArrayBuilderlsINS_11BSONBinDataEEERS0_RKT_
FN:519,_ZN5mongo14BSONObjBuilder16appendCodeWScopeERKNS_10StringDataES3_RKNS_7BSONObjE
FN:530,_ZN5mongo16BSONArrayBuilderlsINS_14BSONCodeWScopeEEERS0_RKT_
FN:533,_ZN5mongo14BSONObjBuilder15appendUndefinedERKNS_10StringDataE.isra.127
FN:533,_ZN5mongo14BSONObjBuilder15appendUndefinedERKNS_10StringDataE.isra.53
FN:533,_ZN5mongo14BSONObjBuilder15appendUndefinedERKNS_10StringDataE.isra.164
FN:533,_ZN5mongo14BSONObjBuilder15appendUndefinedERKNS_10StringDataE.isra.120
FN:572,_ZN5mongo14BSONObjBuilder3objEv
FN:586,_ZN5mongo14BSONObjBuilder4doneEv
FN:599,_ZN5mongo14BSONObjBuilder9asTempObjEv
FN:623,_ZN5mongo14BSONObjBuilder6numStrEi
FN:633,_ZN5mongo16BSONArrayBuilderlsIA1_cEERS0_RKT_
FN:633,_ZN5mongo16BSONArrayBuilderlsISsEERS0_RKT_
FN:633,_ZN5mongo16BSONArrayBuilderlsIiEERS0_RKT_.isra.130
FN:633,_ZN5mongo16BSONArrayBuilderlsIdEERS0_RKT_.isra.154
FN:633,_ZN5mongo16BSONArrayBuilderlsIA4_cEERS0_RKT_
FN:633,_ZN5mongo16BSONArrayBuilderlsINS_10StringDataEEERS0_RKT_
FN:633,_ZN5mongo16BSONArrayBuilderlsIxEERS0_RKT_.isra.156
FN:633,_ZN5mongo16BSONArrayBuilderlsIA3_cEERS0_RKT_
FN:633,_ZN5mongo2ORERKNS_7BSONObjES2_S2_
FN:633,_ZN5mongo16BSONArrayBuilderlsINS_7BSONObjEEERS0_RKT_
FN:633,_ZN5mongo16BSONArrayBuilderlsINS_13MinKeyLabelerEEERS0_RKT_.isra.131
FN:633,_ZN5mongo16BSONArrayBuilderlsIiEERS0_RKT_.isra.129
FN:633,_ZN5mongo16BSONArrayBuilderlsIbEERS0_RKT_.isra.136
FN:633,_ZN5mongo16BSONArrayBuilderlsIA6_cEERS0_RKT_
FN:633,_ZN5mongo16BSONArrayBuilderlsIA19_cEERS0_RKT_
FN:633,_ZN5mongo16BSONArrayBuilderlsINS_6OpTimeEEERS0_RKT_
FN:633,_ZN5mongo16BSONArrayBuilderlsIA22_cEERS0_RKT_
FN:633,_ZN5mongo16BSONArrayBuilderlsINS_3OIDEEERS0_RKT_
FN:633,_ZN5mongo16BSONArrayBuilderlsIA2_cEERS0_RKT_
FN:633,_ZN5mongo16BSONArrayBuilderlsIiEERS0_RKT_.isra.57
FN:633,_ZN5mongo16BSONArrayBuilderlsIA10_cEERS0_RKT_
FN:633,_ZN5mongo16BSONArrayBuilderlsINS_9BSONArrayEEERS0_RKT_
FN:633,_ZN5mongo16BSONArrayBuilderlsINS_11NullLabelerEEERS0_RKT_.isra.138
FN:633,_ZN5mongo16BSONArrayBuilderlsINS_13MaxKeyLabelerEEERS0_RKT_.isra.143
FN:633,_ZN5mongo16BSONArrayBuilderlsINS_16UndefinedLabelerEEERS0_RKT_.isra.134
FN:640,_ZN5mongo14BSONObjBuilderlsERKNS_7Labeler5LabelE
FN:652,_ZN5mongo14BSONObjBuilderlsINS_7BSONObjEEERS0_RKNS_14BSONFieldValueIT_EE
FN:678,_ZN5mongo14BSONObjBuilder5_doneEv
FN:711,_ZN5mongo16BSONArrayBuilder6appendIxEERS0_RKT_.isra.132
FN:711,_ZN5mongo16BSONArrayBuilder6appendIiEERS0_RKT_.isra.51
FN:711,_ZN5mongo16BSONArrayBuilder6appendINS_7BSONObjEEERS0_RKT_
FN:711,_ZN5mongo16BSONArrayBuilder6appendIiEERS0_RKT_.isra.131
FN:716,_ZN5mongo16BSONArrayBuilder6appendERKNS_11BSONElementE
FN:731,_ZN5mongo16BSONArrayBuilder10appendNullEv
FN:735,_ZN5mongo16BSONArrayBuilder15appendUndefinedEv
FN:743,_ZN5mongo16BSONArrayBuilder3arrEv
FN:849,_ZN5mongo16BSONArrayBuilder4fillERKNS_10StringDataE
FN:858,_ZN5mongo16BSONArrayBuilder4fillEi
FN:874,_ZN5mongo14BSONObjBuilder6appendINS_7BSONObjEEERS0_RKNS_10StringDataERKSt6vectorIT_SaIS8_EE
FN:874,_ZN5mongo14BSONObjBuilder6appendIiEERS0_RKNS_10StringDataERKSt6vectorIT_SaIS7_EE
FN:874,_ZN5mongo14BSONObjBuilder6appendIdEERS0_RKNS_10StringDataERKSt6vectorIT_SaIS7_EE
FNDA:1,_ZN5mongo16BSONArrayBuilderlsINS_9BSONDBRefEEERS0_RKT_
FNDA:0,_ZN5mongo14BSONObjBuilder11subobjStartERKNS_10StringDataE.isra.182
FNDA:249,_ZN5mongo14BSONObjBuilder6appendISsEERS0_RKNS_10StringDataERKSt6vectorIT_SaIS7_EE
FNDA:5,_ZN5mongo14BSONObjBuilder13subarrayStartERKNS_10StringDataE.isra.336
FNDA:1,_ZN5mongo16BSONArrayBuilder15appendUndefinedEv
FNDA:431,_ZN5mongo14BSONObjBuilderC2ERNS_11_BufBuilderINS_16TrivialAllocatorEEE
FNDA:7,_ZN5mongo14BSONObjBuilder13subarrayStartERKNS_10StringDataE.isra.129
FNDA:250,_ZN5mongo14BSONObjBuilder11appendTimeTERKNS_10StringDataEl
FNDA:7,_ZN5mongo14BSONObjBuilder12appendNumberERKNS_10StringDataEm
FNDA:1,_ZN5mongo16BSONArrayBuilderlsINS_13MaxKeyLabelerEEERS0_RKT_.isra.143
FNDA:4,_ZN5mongo14BSONObjBuilder15appendUndefinedERKNS_10StringDataE.isra.120
FNDA:1,_ZN5mongo14BSONObjBuilder13subarrayStartERKNS_10StringDataE.isra.56
FNDA:2,_ZN5mongo16BSONArrayBuilder6appendERKNS_11BSONElementE
FNDA:1,_ZN5mongo16BSONArrayBuilderlsINS_11NullLabelerEEERS0_RKT_.isra.138
FNDA:1,_ZN5mongo16BSONArrayBuilderlsINS_9BSONArrayEEERS0_RKT_
FNDA:1,_ZN5mongo16BSONArrayBuilderlsIA10_cEERS0_RKT_
FNDA:1,_ZN5mongo16BSONArrayBuilderlsINS_16UndefinedLabelerEEERS0_RKT_.isra.134
FNDA:1,_ZN5mongo14BSONObjBuilder6appendIdEERS0_RKNS_10StringDataERKSt6vectorIT_SaIS7_EE
FNDA:1,_ZN5mongo16BSONArrayBuilderlsINS_14BSONCodeWScopeEEERS0_RKT_
FNDA:77,_ZN5mongo14BSONObjBuilder8appendAsERKNS_11BSONElementERKNS_10StringDataE
FNDA:1136,_ZN5mongo14BSONObjBuilder6appendERKNS_10StringDataEd
FNDA:1,_ZN5mongo16BSONArrayBuilderlsINS_10BSONSymbolEEERS0_RKT_
FNDA:1,_ZN5mongo16BSONArrayBuilderlsINS_11BSONBinDataEEERS0_RKT_
FNDA:2,_ZN5mongo16BSONArrayBuilderlsINS_3OIDEEERS0_RKT_
FNDA:53,_ZN5mongo14BSONObjBuilder9appendOIDERKNS_10StringDataEPNS_3OIDEb
FNDA:114,_ZN5mongo16BSONArrayBuilderlsIA2_cEERS0_RKT_
FNDA:4918,_ZN5mongo14BSONObjBuilder3objEv
FNDA:10,_ZN5mongo14BSONObjBuilder15appendUndefinedERKNS_10StringDataE.isra.53
FNDA:93,_ZN5mongo14BSONObjBuilder6appendERKNS_10StringDataENS_3OIDE
FNDA:71530,_ZN5mongo14BSONObjBuilder6appendERKNS_10StringDataEPKci
FNDA:10,_ZN5mongo14BSONObjBuilder12appendMaxKeyERKNS_10StringDataE
FNDA:27,_ZN5mongo14BSONObjBuilder13subarrayStartERKNS_10StringDataE.isra.55
FNDA:48,_ZN5mongo14BSONObjBuilder10appendBoolERKNS_10StringDataEi
FNDA:40,_ZN5mongo14BSONObjBuilder15appendUndefinedERKNS_10StringDataE.isra.164
FNDA:3,_ZN5mongo16BSONArrayBuilderlsIiEERS0_RKT_.isra.57
FNDA:313,_ZN5mongo16BSONArrayBuilder6appendINS_7BSONObjEEERS0_RKT_
FNDA:1,_ZN5mongo16BSONArrayBuilderlsINS_6OpTimeEEERS0_RKT_
FNDA:4,_ZN5mongo14BSONObjBuilder12appendSymbolERKNS_10StringDataES3_
FNDA:1,_ZN5mongo16BSONArrayBuilderlsIA22_cEERS0_RKT_
FNDA:14,_ZN5mongo16BSONArrayBuilder6appendIiEERS0_RKT_.isra.131
FNDA:2,_ZN5mongo14BSONObjBuilderlsINS_9BSONArrayEEERS0_RKNS_14BSONFieldValueIT_EE
FNDA:2,_ZN5mongo14BSONObjBuilder15appendTimestampERKNS_10StringDataE
FNDA:1,_ZN5mongo16BSONArrayBuilder4fillERKNS_10StringDataE
FNDA:10,_ZN5mongo14BSONObjBuilderlsERKNS_7Labeler5LabelE
FNDA:12433,_ZN5mongo14BSONObjBuilder6appendERKNS_10StringDataEi
FNDA:1315,_ZN5mongo14BSONObjBuilder6appendERKNS_10StringDataEPKc
FNDA:4,_ZN5mongo14BSONObjBuilder12appendMinKeyERKNS_10StringDataE
FNDA:1528,_ZN5mongo14BSONObjBuilder6appendERKNS_10StringDataEb
FNDA:10003,_ZN5mongo16BSONArrayBuilderlsIiEERS0_RKT_.isra.129
FNDA:1,_ZN5mongo16BSONArrayBuilderlsINS_13MinKeyLabelerEEERS0_RKT_.isra.131
FNDA:185,_ZN5mongo14BSONObjBuilderlsISsEERS0_RKNS_14BSONFieldValueIT_EE
FNDA:6535,_ZN5mongo14BSONObjBuilder5_doneEv
FNDA:1379,_ZN5mongo14BSONObjBuilder4doneEv
FNDA:1,_ZN5mongo16BSONArrayBuilderlsINS_9BSONRegExEEERS0_RKT_
FNDA:112,_ZN5mongo16BSONArrayBuilder6appendIiEERS0_RKT_.isra.51
FNDA:6,_ZN5mongo16BSONArrayBuilderlsIA19_cEERS0_RKT_
FNDA:132,_ZN5mongo14BSONObjBuilder6appendERKNS_10StringDataEx
FNDA:27,_ZN5mongo14BSONObjBuilder10appendCodeERKNS_10StringDataES3_
FNDA:2,_ZN5mongo16BSONArrayBuilderlsIA6_cEERS0_RKT_
FNDA:1,_ZN5mongo16BSONArrayBuilderlsIbEERS0_RKT_.isra.136
FNDA:12660,_ZN5mongo14BSONObjBuilder6numStrEi
FNDA:4,_ZN5mongo14BSONObjBuilder6appendERKNS_10StringDataES3_
FNDA:83,_ZN5mongo14BSONObjBuilder12appendNumberERKNS_10StringDataEx
FNDA:1,_ZN5mongo16BSONArrayBuilderlsIA3_cEERS0_RKT_
FNDA:91,_ZN5mongo14BSONObjBuilder11subobjStartERKNS_10StringDataE.isra.128
FNDA:18,_ZN5mongo14BSONObjBuilder11appendDBRefERKNS_10StringDataES3_RKNS_3OIDE
FNDA:29,_ZN5mongo14BSONObjBuilder16appendCodeWScopeERKNS_10StringDataES3_RKNS_7BSONObjE
FNDA:6643,_ZN5mongo14BSONObjBuilderD2Ev
FNDA:1,_ZN5mongo16BSONArrayBuilderlsINS_8BSONCodeEEERS0_RKT_
FNDA:589,_ZN5mongo14BSONObjBuilder11appendArrayERKNS_10StringDataERKNS_7BSONObjE
FNDA:1,_ZN5mongo16BSONArrayBuilder4fillEi
FNDA:1,_ZN5mongo2ORERKNS_7BSONObjES2_S2_
FNDA:179,_ZN5mongo14BSONObjBuilder13appendBinDataERKNS_10StringDataEiNS_11BinDataTypeEPKv
FNDA:43,_ZN5mongo16BSONArrayBuilderlsINS_7BSONObjEEERS0_RKT_
FNDA:2,_ZN5mongo16BSONArrayBuilderlsIdEERS0_RKT_.isra.154
FNDA:2220,_ZN5mongo14BSONObjBuilder6appendERKNS_10StringDataENS_7BSONObjE
FNDA:16,_ZN5mongo14BSONObjBuilder15appendUndefinedERKNS_10StringDataE.isra.127
FNDA:65,_ZN5mongo14BSONObjBuilder15appendTimestampERKNS_10StringDataEy
FNDA:6212,_ZN5mongo14BSONObjBuilderC2Ei
FNDA:288,_ZN5mongo14BSONObjBuilder11subobjStartERKNS_10StringDataE.isra.54
FNDA:172,_ZN5mongo14BSONObjBuilder10appendDateERKNS_10StringDataENS_6Date_tE
FNDA:19,_ZN5mongo14BSONObjBuilder6appendIiEERS0_RKNS_10StringDataERKSt6vectorIT_SaIS7_EE
FNDA:27,_ZN5mongo14BSONObjBuilder13appendIntOrLLERKNS_10StringDataEx
FNDA:1,_ZN5mongo16BSONArrayBuilderlsIxEERS0_RKT_.isra.156
FNDA:128,_ZN5mongo14BSONObjBuilder11appendRegexERKNS_10StringDataES3_S3_
FNDA:7,_ZN5mongo16BSONArrayBuilderlsIA4_cEERS0_RKT_
FNDA:1,_ZN5mongo16BSONArrayBuilderlsINS_10StringDataEEERS0_RKT_
FNDA:4,_ZN5mongo14BSONObjBuilder9asTempObjEv
FNDA:194,_ZN5mongo16BSONArrayBuilder3arrEv
FNDA:249,_ZN5mongo14BSONObjBuilder6appendINS_7BSONObjEEERS0_RKNS_10StringDataERKSt6vectorIT_SaIS8_EE
FNDA:71,_ZN5mongo14BSONObjBuilder10appendNullERKNS_10StringDataE
FNDA:1,_ZN5mongo16BSONArrayBuilderlsIA1_cEERS0_RKT_
FNDA:2,_ZN5mongo14BSONObjBuilder6appendERKNS_11BSONElementE
FNDA:5,_ZN5mongo14BSONObjBuilder11subobjStartERKNS_10StringDataE.isra.165
FNDA:2,_ZN5mongo16BSONArrayBuilderlsISsEERS0_RKT_
FNDA:14,_ZN5mongo16BSONArrayBuilder6appendIxEERS0_RKT_.isra.132
FNDA:1,_ZN5mongo16BSONArrayBuilderlsINS_6Date_tEEERS0_RKT_
FNDA:3,_ZN5mongo16BSONArrayBuilder10appendNullEv
FNDA:3,_ZN5mongo16BSONArrayBuilderlsIiEERS0_RKT_.isra.130
FNDA:2,_ZN5mongo14BSONObjBuilder11subobjStartERKNS_10StringDataE.isra.123
FNDA:2,_ZN5mongo14BSONObjBuilderlsINS_7BSONObjEEERS0_RKNS_14BSONFieldValueIT_EE
FNF:101
FNH:100
DA:54,12424
DA:55,6212
DA:56,6212
DA:57,6212
DA:62,862
DA:63,431
DA:64,431
DA:71,13286
DA:72,6643
DA:73,234
DA:75,6643
DA:84,4
DA:85,2
DA:86,4
DA:87,2
DA:91,77
DA:92,77
DA:93,154
DA:94,77
DA:95,154
DA:96,77
DA:100,2220
DA:101,2220
DA:102,2220
DA:103,2220
DA:104,2220
DA:133,386
DA:134,386
DA:135,386
DA:136,386
DA:142,589
DA:143,589
DA:144,589
DA:145,589
DA:146,589
DA:149,56
DA:154,40
DA:155,40
DA:156,40
DA:157,40
DA:161,48
DA:162,48
DA:163,48
DA:164,48
DA:165,48
DA:169,1528
DA:170,1528
DA:171,1528
DA:172,1528
DA:173,1528
DA:177,12433
DA:178,12433
DA:179,12433
DA:180,12433
DA:181,12433
DA:186,20
DA:190,132
DA:191,132
DA:192,132
DA:193,132
DA:194,132
DA:198,27
DA:200,27
DA:201,27
DA:202,27
DA:203,9
DA:206,18
DA:208,27
DA:216,50
DA:220,1
DA:223,7
DA:226,7
DA:227,3
DA:229,4
DA:230,7
DA:233,83
DA:239,83
DA:240,24
DA:242,59
DA:243,9
DA:246,50
DA:249,83
DA:253,1136
DA:254,1136
DA:255,1136
DA:256,1136
DA:257,1136
DA:269,53
DA:270,53
DA:271,53
DA:272,53
DA:273,40
DA:276,13
DA:277,4
DA:280,13
DA:282,53
DA:290,93
DA:291,93
DA:292,93
DA:293,93
DA:294,93
DA:309,250
DA:310,250
DA:311,250
DA:312,250
DA:313,250
DA:319,172
DA:328,172
DA:329,172
DA:330,172
DA:331,172
DA:334,9
DA:341,128
DA:342,128
DA:343,128
DA:344,128
DA:345,128
DA:346,128
DA:350,3
DA:353,27
DA:354,27
DA:355,27
DA:356,27
DA:357,27
DA:358,27
DA:362,2
DA:367,71530
DA:368,71530
DA:369,71530
DA:370,71530
DA:371,71530
DA:372,71529
DA:375,1315
DA:376,1315
DA:380,70203
DA:383,4
DA:384,4
DA:385,4
DA:386,4
DA:387,4
DA:388,4
DA:391,4
DA:392,4
DA:393,4
DA:394,4
DA:395,4
DA:396,4
DA:400,2
DA:409,71
DA:410,71
DA:411,71
DA:412,71
DA:416,4
DA:417,4
DA:418,4
DA:419,4
DA:422,10
DA:423,10
DA:424,10
DA:425,10
DA:429,2
DA:430,2
DA:431,2
DA:432,2
DA:433,2
DA:449,65
DA:450,65
DA:451,65
DA:452,65
DA:453,65
DA:467,18
DA:468,18
DA:469,18
DA:470,18
DA:471,18
DA:472,18
DA:473,18
DA:477,3
DA:487,179
DA:488,179
DA:489,179
DA:490,179
DA:491,179
DA:492,179
DA:493,179
DA:497,3
DA:519,29
DA:520,29
DA:521,29
DA:522,58
DA:523,29
DA:524,29
DA:525,29
DA:526,29
DA:530,2
DA:533,70
DA:534,70
DA:535,70
DA:536,70
DA:540,1
DA:572,4918
DA:573,4918
DA:574,4918
DA:576,4918
DA:577,4918
DA:578,4918
DA:586,1379
DA:587,2758
DA:592,4918
DA:599,4
DA:600,4
DA:601,4
DA:602,4
DA:603,4
DA:618,4918
DA:623,12660
DA:624,12660
DA:625,2760
DA:628,9900
DA:633,12100
DA:640,10
DA:641,20
DA:642,8
DA:647,2
DA:652,189
DA:653,390
DA:654,189
DA:667,4918
DA:673,66643
DA:678,6535
DA:679,6535
DA:680,13067
DA:682,6532
DA:683,6532
DA:684,6532
DA:685,13064
DA:686,6532
DA:687,6532
DA:688,6532
DA:689,0
DA:690,6532
DA:704,259
DA:706,246
DA:707,13
DA:711,453
DA:712,1672
DA:713,453
DA:716,2
DA:717,6
DA:718,2
DA:722,1
DA:726,10207
DA:727,61242
DA:728,10207
DA:731,3
DA:732,9
DA:733,3
DA:735,1
DA:736,3
DA:737,1
DA:743,388
DA:744,44
DA:746,21
DA:814,1
DA:815,1
DA:849,1
DA:851,1
DA:852,1
DA:854,2
DA:855,1
DA:856,1
DA:858,1
DA:860,1
DA:862,1
DA:864,4
DA:865,3
DA:866,1
DA:868,10666
DA:874,5412
DA:875,518
DA:876,9270
DA:877,8683
DA:878,1036
DA:879,518
DA:934,1
DA:935,5
LF:286
LH:285
end_of_record
TN:
SF:/home/tbrock/Code/mongo-cxx-driver/src/mongo/bson/bsonobjiterator.h
FN:63,_ZN5mongo15BSONObjIterator4nextEb
FN:79,_ZN5mongo15BSONObjIterator4nextEv
FN:102,_ZN5mongo18BSONIteratorSortedD2Ev
FN:112,_ZN5mongo18BSONIteratorSorted4nextEv
FNDA:10003,_ZN5mongo18BSONIteratorSortedD2Ev
FNDA:1028109,_ZN5mongo15BSONObjIterator4nextEv
FNDA:400742,_ZN5mongo15BSONObjIterator4nextEb
FNDA:40016,_ZN5mongo18BSONIteratorSorted4nextEv
FNF:4
FNH:4
DA:42,317073
DA:43,317073
DA:44,0
DA:47,317073
DA:48,317073
DA:52,2
DA:53,2
DA:57,62778
DA:60,450884
DA:63,400742
DA:64,400742
DA:66,400742
DA:67,400742
DA:68,400742
DA:69,400742
DA:72,400742
DA:73,400742
DA:74,400742
DA:75,400742
DA:77,400742
DA:79,1028109
DA:80,1028109
DA:81,1028109
DA:82,1028109
DA:83,1028109
DA:102,10003
DA:103,10003
DA:104,10003
DA:105,10003
DA:106,10003
DA:109,11
DA:112,40016
DA:113,40016
DA:114,40016
DA:115,80032
DA:116,0
DA:130,10002
DA:140,1
LF:38
LH:36
end_of_record
TN:
SF:/home/tbrock/Code/mongo-cxx-driver/src/mongo/bson/bsontypes.h
FN:116,_ZN5mongo20canonicalizeBSONTypeENS_8BSONTypeE
FNDA:5464,_ZN5mongo20canonicalizeBSONTypeENS_8BSONTypeE
FNF:1
FNH:1
DA:116,5464
DA:117,5464
DA:120,6
DA:125,41
DA:129,594
DA:132,3733
DA:134,494
DA:136,40
DA:138,92
DA:140,70
DA:142,52
DA:145,132
DA:147,68
DA:149,8
DA:151,8
DA:153,12
DA:155,0
LF:17
LH:16
end_of_record
TN:
SF:/home/tbrock/Code/mongo-cxx-driver/src/mongo/bson/oid.cpp
FN:40,_ZNK5mongo3OID12hash_combineERm
FN:49,_ZN5mongolsERSoRKNS_3OIDE
FN:54,_ZN5mongo3OID9foldInPidERNS0_13MachineAndPidE
FN:62,_ZN5mongo3OID16genMachineAndPidEv
FN:74,_Z41__static_initialization_and_destruction_0ii
FN:76,_ZN5mongo3OID14regenMachineIdEv
FN:84,_ZN5mongo3OID12getMachineIdEv
FN:93,_ZN5mongo3OID10justForkedEv
FN:103,_ZN5mongo3OID4initEv
FN:128,_ZN5mongo3OID14initSequentialEv
FN:148,_ZN5mongo3OID4initERKSs
FN:157,_ZN5mongo3OID4initENS_6Date_tEb
FN:171,_ZN5mongo3OID7asTimeTEv
FN:181,__tcf_0
FN:199,_GLOBAL__sub_I_oid.cpp
FNDA:20000,_ZN5mongo3OID14initSequentialEv
FNDA:0,_ZN5mongo3OID12getMachineIdEv
FNDA:47,_ZN5mongo3OID4initERKSs
FNDA:5,_ZN5mongo3OID7asTimeTEv
FNDA:0,_ZN5mongo3OID14regenMachineIdEv
FNDA:3,_ZN5mongo3OID4initENS_6Date_tEb
FNDA:28,_GLOBAL__sub_I_oid.cpp
FNDA:28,_ZN5mongo3OID16genMachineAndPidEv
FNDA:26,_ZN5mongolsERSoRKNS_3OIDE
FNDA:28,__tcf_0
FNDA:23,_ZN5mongo3OID4initEv
FNDA:0,_ZNK5mongo3OID12hash_combineERm
FNDA:28,_Z41__static_initialization_and_destruction_0ii
FNDA:28,_ZN5mongo3OID9foldInPidERNS0_13MachineAndPidE
FNDA:0,_ZN5mongo3OID10justForkedEv
FNF:15
FNH:11
DA:40,0
DA:41,0
DA:42,0
DA:43,0
DA:44,0
DA:49,26
DA:50,26
DA:51,26
DA:54,28
DA:55,56
DA:56,28
DA:58,28
DA:59,28
DA:60,28
DA:62,28
DA:66,28
DA:67,28
DA:68,28
DA:69,28
DA:70,28
DA:74,28
DA:76,0
DA:77,0
DA:78,0
DA:84,0
DA:86,0
DA:87,0
DA:88,0
DA:89,0
DA:90,0
DA:93,0
DA:94,0
DA:97,0
DA:98,0
DA:100,0
DA:101,0
DA:103,23
DA:105,29
DA:108,23
DA:109,23
DA:110,23
DA:111,23
DA:112,23
DA:113,23
DA:116,23
DA:119,69
DA:120,23
DA:121,23
DA:122,23
DA:123,23
DA:125,23
DA:128,20000
DA:131,20000
DA:132,20000
DA:133,20000
DA:134,20000
DA:135,20000
DA:136,20000
DA:140,20000
DA:141,20000
DA:142,180000
DA:143,160000
DA:146,20000
DA:148,47
DA:149,47
DA:151,564
DA:152,564
DA:153,564
DA:155,47
DA:157,3
DA:158,3
DA:159,3
DA:160,3
DA:161,3
DA:162,3
DA:163,3
DA:165,3
DA:166,1
DA:168,2
DA:169,3
DA:171,5
DA:173,5
DA:174,5
DA:175,5
DA:176,5
DA:177,5
DA:178,5
DA:181,84
DA:192,28
DA:197,28
DA:199,84
LF:91
LH:71
end_of_record
TN:
SF:/home/tbrock/Code/mongo-cxx-driver/src/mongo/bson/oid.h
FN:72,_ZN5mongolsERNS_17StringBuilderImplINS_16TrivialAllocatorEEERKNS_3OIDE
FNDA:0,_ZN5mongolsERNS_17StringBuilderImplINS_16TrivialAllocatorEEERKNS_3OIDE
FNF:1
FNH:0
DA:45,10102
DA:53,32
DA:65,1
DA:66,1
DA:67,10000
DA:68,10000
DA:72,30
DA:96,1
DA:148,0
LF:9
LH:8
end_of_record
TN:
SF:/home/tbrock/Code/mongo-cxx-driver/src/mongo/bson/optime.cpp
FN:29,_Z41__static_initialization_and_destruction_0ii
FN:32,_ZN5mongo6OpTime6skewedEv
FN:50,_ZN5mongo6OpTime4_nowEv
FN:68,_ZN5mongo6OpTime3nowERKNS_5mutex11scoped_lockE
FN:72,_ZN5mongo6OpTime7getLastERKNS_5mutex11scoped_lockE
FN:76,_ZN5mongo6OpTime3maxEv
FN:82,_ZN5mongo6OpTime16waitForDifferentEj
FN:90,_GLOBAL__sub_I_optime.cpp
FNDA:28,_GLOBAL__sub_I_optime.cpp
FNDA:7,_ZN5mongo6OpTime3maxEv
FNDA:28,_Z41__static_initialization_and_destruction_0ii
FNDA:0,_ZN5mongo6OpTime7getLastERKNS_5mutex11scoped_lockE
FNDA:0,_ZN5mongo6OpTime3nowERKNS_5mutex11scoped_lockE
FNDA:0,_ZN5mongo6OpTime16waitForDifferentEj
FNDA:0,_ZN5mongo6OpTime4_nowEv
FNDA:0,_ZN5mongo6OpTime6skewedEv
FNF:8
FNH:3
DA:29,28
DA:30,28
DA:32,0
DA:33,0
DA:34,0
DA:35,0
DA:36,0
DA:37,0
DA:38,0
DA:39,0
DA:40,0
DA:43,0
DA:44,0
DA:45,0
DA:47,0
DA:50,0
DA:52,0
DA:53,0
DA:54,0
DA:55,0
DA:57,0
DA:58,0
DA:61,0
DA:62,0
DA:64,0
DA:65,0
DA:68,0
DA:69,0
DA:72,0
DA:73,0
DA:76,7
DA:77,7
DA:78,7
DA:79,7
DA:82,0
DA:84,0
DA:85,0
DA:86,0
DA:90,84
LF:39
LH:7
end_of_record
TN:
SF:/home/tbrock/Code/mongo-cxx-driver/src/mongo/bson/optime.h
FN:28,_ZN5mongo18ClockSkewExceptionD0Ev
FN:28,_ZN5mongo18ClockSkewExceptionD2Ev
FNDA:0,_ZN5mongo18ClockSkewExceptionD0Ev
FNDA:0,_ZN5mongo18ClockSkewExceptionD2Ev
FNF:2
FNH:0
DA:28,0
DA:29,0
DA:69,1
DA:73,84
DA:74,84
DA:78,4
DA:79,4
DA:83,2
DA:84,2
DA:108,58
DA:136,0
LF:11
LH:8
end_of_record
TN:
SF:/home/tbrock/Code/mongo-cxx-driver/src/mongo/bson/ordering.h
FNF:0
FNH:0
DA:50,0
LF:1
LH:0
end_of_record
TN:
SF:/home/tbrock/Code/mongo-cxx-driver/src/mongo/bson/util/atomic_int.h
FNF:0
FNH:0
DA:36,112
DA:37,439876
DA:39,119471
DA:77,5212
DA:79,0
DA:82,439898
DA:85,238428
DA:88,965
LF:8
LH:7
end_of_record
TN:
SF:/home/tbrock/Code/mongo-cxx-driver/src/mongo/bson/util/bson_extract.cpp
FN:23,_ZN5mongo16bsonExtractFieldERKNS_7BSONObjERKNS_10StringDataEPNS_11BSONElementE
FN:35,_ZN5mongo21bsonExtractTypedFieldERKNS_7BSONObjERKNS_10StringDataENS_8BSONTypeEPNS_11BSONElementE
FN:51,_ZN5mongo23bsonExtractBooleanFieldERKNS_7BSONObjERKNS_10StringDataEPb
FN:62,_ZN5mongo34bsonExtractBooleanFieldWithDefaultERKNS_7BSONObjERKNS_10StringDataEbPb
FN:86,_ZN5mongo22bsonExtractStringFieldERKNS_7BSONObjERKNS_10StringDataEPSs
FN:97,_ZN5mongo33bsonExtractStringFieldWithDefaultERKNS_7BSONObjERKNS_10StringDataES5_PSs
FN:111,_ZN5mongo23bsonExtractIntegerFieldERKNS_7BSONObjERKNS_10StringDataEPx
FN:134,_ZN5mongo34bsonExtractIntegerFieldWithDefaultERKNS_7BSONObjERKNS_10StringDataExPx
FN:146,_GLOBAL__sub_I_bson_extract.cpp
FN:146,_Z41__static_initialization_and_destruction_0ii
FNDA:48,_ZN5mongo16bsonExtractFieldERKNS_7BSONObjERKNS_10StringDataEPNS_11BSONElementE
FNDA:21,_ZN5mongo22bsonExtractStringFieldERKNS_7BSONObjERKNS_10StringDataEPSs
FNDA:28,_GLOBAL__sub_I_bson_extract.cpp
FNDA:8,_ZN5mongo23bsonExtractIntegerFieldERKNS_7BSONObjERKNS_10StringDataEPx
FNDA:1,_ZN5mongo34bsonExtractIntegerFieldWithDefaultERKNS_7BSONObjERKNS_10StringDataExPx
FNDA:0,_ZN5mongo23bsonExtractBooleanFieldERKNS_7BSONObjERKNS_10StringDataEPb
FNDA:10,_ZN5mongo34bsonExtractBooleanFieldWithDefaultERKNS_7BSONObjERKNS_10StringDataEbPb
FNDA:6,_ZN5mongo33bsonExtractStringFieldWithDefaultERKNS_7BSONObjERKNS_10StringDataES5_PSs
FNDA:28,_Z41__static_initialization_and_destruction_0ii
FNDA:26,_ZN5mongo21bsonExtractTypedFieldERKNS_7BSONObjERKNS_10StringDataENS_8BSONTypeEPNS_11BSONElementE
FNF:10
FNH:9
DA:23,48
DA:26,48
DA:27,48
DA:29,39
DA:30,78
DA:31,35
DA:35,26
DA:38,20
DA:39,26
DA:40,26
DA:42,40
DA:44,16
DA:45,12
DA:46,20
DA:51,0
DA:55,0
DA:56,0
DA:58,0
DA:62,10
DA:67,10
DA:68,10
DA:69,4
DA:72,6
DA:75,10
DA:77,4
DA:78,6
DA:81,5
DA:86,21
DA:90,21
DA:91,21
DA:93,28
DA:97,6
DA:101,6
DA:102,6
DA:103,8
DA:105,2
DA:111,8
DA:115,8
DA:116,8
DA:118,6
DA:120,4
DA:121,6
DA:123,5
DA:124,5
DA:126,12
DA:127,3
DA:128,9
DA:130,2
DA:134,1
DA:138,1
DA:139,1
DA:140,1
DA:143,1
DA:146,84
LF:54
LH:50
end_of_record
TN:
SF:/home/tbrock/Code/mongo-cxx-driver/src/mongo/bson/util/builder.h
FN:65,_ZN5mongo11_BufBuilderINS_16TrivialAllocatorEEC2Ei
FN:66,_ZN5mongo11_BufBuilderINS_16TrivialAllocatorEE15grow_reallocateEi
FN:74,_ZN5mongo11_BufBuilderINS_14StackAllocatorEEC2Ei
FN:77,_ZN5mongo14StackAllocator7ReallocEPvm
FN:140,_ZN5mongo11_BufBuilderINS_16TrivialAllocatorEE4skipEi
FN:152,_ZN5mongo11_BufBuilderINS_16TrivialAllocatorEE10appendCharEc
FN:155,_ZN5mongo11_BufBuilderINS_16TrivialAllocatorEE9appendNumEc
FN:161,_ZN5mongo11_BufBuilderINS_16TrivialAllocatorEE9appendNumEi
FN:161,_ZN5mongo11_BufBuilderINS_14StackAllocatorEE9appendNumEi
FN:164,_ZN5mongo11_BufBuilderINS_16TrivialAllocatorEE9appendNumEj
FN:170,_ZN5mongo11_BufBuilderINS_16TrivialAllocatorEE9appendNumEd
FN:173,_ZN5mongo11_BufBuilderINS_14StackAllocatorEE9appendNumEx
FN:173,_ZN5mongo11_BufBuilderINS_16TrivialAllocatorEE9appendNumEx
FN:176,_ZN5mongo11_BufBuilderINS_16TrivialAllocatorEE9appendNumEy
FN:180,_ZN5mongo11_BufBuilderINS_16TrivialAllocatorEE9appendBufEPKvm
FN:189,_ZN5mongo11_BufBuilderINS_16TrivialAllocatorEE9appendStrERKNS_10StringDataEb
FN:189,_ZN5mongo11_BufBuilderINS_14StackAllocatorEE9appendStrERKNS_10StringDataEb
FN:202,_ZN5mongo17StringBuilderImplINS_16TrivialAllocatorEE5SBNUMIiEERS2_T_iPKc
FN:202,_ZN5mongo17StringBuilderImplINS_16TrivialAllocatorEE5SBNUMIxEERS2_T_iPKc
FN:202,_ZN5mongo17StringBuilderImplINS_16TrivialAllocatorEE5SBNUMImEERS2_T_iPKc
FN:202,_ZN5mongo17StringBuilderImplINS_16TrivialAllocatorEE5SBNUMIsEERS2_T_iPKc
FN:202,_ZN5mongo17StringBuilderImplINS_16TrivialAllocatorEE5SBNUMIlEERS2_T_iPKc
FN:202,_ZN5mongo17StringBuilderImplINS_16TrivialAllocatorEE16appendDoubleNiceEd
FN:202,_ZN5mongo17StringBuilderImplINS_16TrivialAllocatorEE5writeEPKci
FN:202,_ZN5mongo17StringBuilderImplINS_16TrivialAllocatorEE5SBNUMIyEERS2_T_iPKc
FN:202,_ZN5mongo17StringBuilderImplINS_16TrivialAllocatorEE5SBNUMIjEERS2_T_iPKc
FN:202,_ZN5mongo17StringBuilderImplINS_16TrivialAllocatorEE5SBNUMIdEERS2_T_iPKc
FN:202,_ZN5mongo17StringBuilderImplINS_16TrivialAllocatorEE6appendERKNS_10StringDataE
FN:202,_ZN5mongo17StringBuilderImplINS_16TrivialAllocatorEElsEc
FN:213,_ZN5mongo11_BufBuilderINS_14StackAllocatorEE15grow_reallocateEi
FNDA:6212,_ZN5mongo11_BufBuilderINS_16TrivialAllocatorEE9appendNumEj
FNDA:33746297,_ZN5mongo11_BufBuilderINS_16TrivialAllocatorEE9appendStrERKNS_10StringDataEb
FNDA:5,_ZN5mongo17StringBuilderImplINS_16TrivialAllocatorEE5SBNUMIxEERS2_T_iPKc
FNDA:11,_ZN5mongo17StringBuilderImplINS_16TrivialAllocatorEE5SBNUMImEERS2_T_iPKc
FNDA:1,_ZN5mongo11_BufBuilderINS_14StackAllocatorEEC2Ei
FNDA:110987,_ZN5mongo17StringBuilderImplINS_16TrivialAllocatorEE5SBNUMIiEERS2_T_iPKc
FNDA:8,_ZN5mongo17StringBuilderImplINS_16TrivialAllocatorEE5SBNUMIlEERS2_T_iPKc
FNDA:8,_ZN5mongo17StringBuilderImplINS_16TrivialAllocatorEE5SBNUMIsEERS2_T_iPKc
FNDA:0,_ZN5mongo14StackAllocator7ReallocEPvm
FNDA:184727,_ZN5mongo11_BufBuilderINS_16TrivialAllocatorEE9appendNumEi
FNDA:0,_ZN5mongo11_BufBuilderINS_14StackAllocatorEE15grow_reallocateEi
FNDA:5,_ZN5mongo11_BufBuilderINS_16TrivialAllocatorEE10appendCharEc
FNDA:271,_ZN5mongo17StringBuilderImplINS_16TrivialAllocatorEE5SBNUMIjEERS2_T_iPKc
FNDA:0,_ZN5mongo11_BufBuilderINS_14StackAllocatorEE9appendNumEi
FNDA:0,_ZN5mongo17StringBuilderImplINS_16TrivialAllocatorEE5SBNUMIdEERS2_T_iPKc
FNDA:1,_ZN5mongo11_BufBuilderINS_14StackAllocatorEE9appendStrERKNS_10StringDataEb
FNDA:1136,_ZN5mongo11_BufBuilderINS_16TrivialAllocatorEE9appendNumEd
FNDA:3,_ZN5mongo17StringBuilderImplINS_16TrivialAllocatorEE5SBNUMIyEERS2_T_iPKc
FNDA:200014,_ZN5mongo17StringBuilderImplINS_16TrivialAllocatorEE5writeEPKci
FNDA:6643,_ZN5mongo11_BufBuilderINS_16TrivialAllocatorEE4skipEi
FNDA:175041,_ZN5mongo11_BufBuilderINS_16TrivialAllocatorEE9appendBufEPKvm
FNDA:1322380,_ZN5mongo11_BufBuilderINS_16TrivialAllocatorEEC2Ei
FNDA:11,_ZN5mongo17StringBuilderImplINS_16TrivialAllocatorEE16appendDoubleNiceEd
FNDA:2642105,_ZN5mongo17StringBuilderImplINS_16TrivialAllocatorEElsEc
FNDA:2183,_ZN5mongo11_BufBuilderINS_16TrivialAllocatorEE15grow_reallocateEi
FNDA:132,_ZN5mongo11_BufBuilderINS_16TrivialAllocatorEE9appendNumEx
FNDA:99585,_ZN5mongo11_BufBuilderINS_16TrivialAllocatorEE9appendNumEc
FNDA:489,_ZN5mongo11_BufBuilderINS_16TrivialAllocatorEE9appendNumEy
FNDA:2659095,_ZN5mongo17StringBuilderImplINS_16TrivialAllocatorEE6appendERKNS_10StringDataE
FNDA:0,_ZN5mongo11_BufBuilderINS_14StackAllocatorEE9appendNumEx
FNF:30
FNH:25
DA:65,1321948
DA:66,2181
DA:67,1317031
DA:74,1
DA:75,0
DA:77,0
DA:78,0
DA:79,0
DA:80,0
DA:81,0
DA:82,0
DA:83,0
DA:84,0
DA:86,0
DA:89,1
DA:90,0
DA:103,1322381
DA:104,1322381
DA:105,2643898
DA:106,1321949
DA:107,0
DA:110,432
DA:112,1322381
DA:113,1322381
DA:114,1322380
DA:117,1322381
DA:118,1317032
DA:119,102153
DA:140,13286
DA:147,4918
DA:152,5
DA:153,5
DA:154,5
DA:155,99585
DA:156,99585
DA:157,99585
DA:161,184727
DA:162,184727
DA:163,184727
DA:164,6212
DA:165,6212
DA:166,6212
DA:170,1136
DA:171,1136
DA:172,1136
DA:173,132
DA:174,132
DA:175,132
DA:176,489
DA:177,489
DA:178,489
DA:180,175041
DA:181,350081
DA:182,175040
DA:189,33746298
DA:190,33746298
DA:191,67492595
DA:192,33746297
DA:196,4
DA:202,39832786
DA:203,39832786
DA:204,39832786
DA:205,2183
DA:207,39832784
DA:208,39832784
DA:213,2183
DA:214,2183
DA:215,18766
DA:216,14400
DA:217,2183
DA:218,2
DA:219,2
DA:220,4
DA:222,4362
DA:223,2181
DA:224,0
DA:225,2181
DA:226,2181
DA:244,1
DA:246,1
DA:257,1215512
DA:266,1215512
DA:269,0
DA:272,110987
DA:275,271
DA:278,8
DA:281,11
DA:284,5
DA:287,3
DA:290,8
DA:292,2642105
DA:293,5284210
DA:294,2642105
DA:297,11
DA:298,11
DA:299,11
DA:300,22
DA:301,11
DA:302,11
DA:303,11
DA:304,11
DA:305,23
DA:306,6
DA:308,11
DA:310,400028
DA:312,7977285
DA:315,2659095
DA:321,1215515
DA:334,111293
DA:335,111293
DA:336,222586
DA:337,111293
DA:338,111293
DA:339,111293
DA:340,111293
LF:115
LH:101
end_of_record
TN:
SF:/home/tbrock/Code/mongo-cxx-driver/src/mongo/bson/util/misc.h
FNF:0
FNH:0
DA:35,1902137
DA:36,1902137
LF:2
LH:2
end_of_record
TN:
SF:/home/tbrock/Code/mongo-cxx-driver/src/mongo/client/connpool.cpp
FN:35,_ZN5mongo11PoolForHostD2Ev
FN:39,_ZN5mongo11PoolForHost5clearEv
FN:47,_ZN5mongo11PoolForHost4doneEPNS_16DBConnectionPoolEPNS_12DBClientBaseE
FN:63,_ZN5mongo11PoolForHost21reportBadConnectionAtEm
FN:74,_ZN5mongo11PoolForHost23isBadSocketCreationTimeEm
FN:79,_ZN5mongo11PoolForHost3getEPNS_16DBConnectionPoolEd
FN:150,_ZN5mongo11PoolForHost16StoredConnectionC2EPNS_12DBClientBaseE
FN:155,_ZN5mongo11PoolForHost16StoredConnection2okEl
FN:160,_ZN5mongo11PoolForHost10createdOneEPNS_12DBClientBaseE
FN:166,_ZN5mongo11PoolForHost18initializeHostNameERKSs
FN:176,_Z41__static_initialization_and_destruction_0ii
FN:178,_ZN5mongo16DBConnectionPoolC2Ev
FN:184,_ZN5mongo16DBConnectionPool4_getERKSsd
FN:191,_ZN5mongo16DBConnectionPool13_finishCreateERKSsdPNS_12DBClientBaseE
FN:211,_ZN5mongo16DBConnectionPool3getERKNS_16ConnectionStringEd
FN:231,_ZN5mongo16DBConnectionPool3getERKSsd
FN:254,_ZN5mongo16DBConnectionPool7releaseERKSsPNS_12DBClientBaseE
FN:260,_ZN5mongo16DBConnectionPoolD0Ev
FN:260,_ZN5mongo16DBConnectionPoolD2Ev
FN:264,_ZN5mongo16DBConnectionPool5flushEv
FN:272,_ZN5mongo16DBConnectionPool5clearEv
FN:280,_ZN5mongo16DBConnectionPool10removeHostERKSs
FN:292,_ZN5mongo16DBConnectionPool7addHookEPNS_16DBConnectionHookE
FN:296,_ZN5mongo16DBConnectionPool8onCreateEPNS_12DBClientBaseE
FN:305,_ZN5mongo16DBConnectionPool11onHandedOutEPNS_12DBClientBaseE
FN:314,_ZN5mongo16DBConnectionPool9onDestroyEPNS_12DBClientBaseE
FN:323,_ZN5mongo16DBConnectionPool10appendInfoERNS_14BSONObjBuilderE
FN:384,_ZNK5mongo16DBConnectionPool17serverNameCompareclERKSsS3_
FN:410,_ZNK5mongo16DBConnectionPool14poolKeyCompareclERKNS0_7PoolKeyES4_
FN:420,_ZN5mongo16DBConnectionPool16isConnectionGoodERKSsPNS_12DBClientBaseE
FN:465,_ZN5mongo18ScopedDbConnection17_setSocketTimeoutEv
FN:471,_ZN5mongo18ScopedDbConnectionD2Ev
FN:471,_ZN5mongo18ScopedDbConnectionD0Ev
FN:493,_ZN5mongo18ScopedDbConnection9clearPoolEv
FN:499,_GLOBAL__sub_I_connpool.cpp
FNDA:0,_ZN5mongo16DBConnectionPool10taskDoWorkEv
FNDA:1995,_ZNK5mongo16DBConnectionPool14poolKeyCompareclERKNS0_7PoolKeyES4_
FNDA:214,_ZN5mongo11PoolForHost3getEPNS_16DBConnectionPoolEd
FNDA:63,_ZN5mongo11PoolForHostD2Ev
FNDA:0,_ZN5mongo16DBConnectionPool10removeHostERKSs
FNDA:135,_ZN5mongo16DBConnectionPool3getERKNS_16ConnectionStringEd
FNDA:4,_ZN5mongo16DBConnectionPool9onDestroyEPNS_12DBClientBaseE
FNDA:3,_ZN5mongo11PoolForHost21reportBadConnectionAtEm
FNDA:3610,_ZNK5mongo16DBConnectionPool17serverNameCompareclERKSsS3_
FNDA:214,_ZN5mongo16DBConnectionPool4_getERKSsd
FNDA:190,_ZN5mongo11PoolForHost16StoredConnectionC2EPNS_12DBClientBaseE
FNDA:195,_ZN5mongo16DBConnectionPool11onHandedOutEPNS_12DBClientBaseE
FNDA:195,_ZN5mongo18ScopedDbConnectionD2Ev
FNDA:64,_ZN5mongo18ScopedDbConnectionD0Ev
FNDA:28,_ZN5mongo16DBConnectionPoolD2Ev
FNDA:194,_ZN5mongo16DBConnectionPool7releaseERKSsPNS_12DBClientBaseE
FNDA:375,_ZN5mongo11PoolForHost18initializeHostNameERKSs
FNDA:28,_Z41__static_initialization_and_destruction_0ii
FNDA:0,_ZN5mongo16DBConnectionPool5flushEv
FNDA:31,_ZN5mongo16DBConnectionPool5clearEv
FNDA:161,_ZN5mongo16DBConnectionPool8onCreateEPNS_12DBClientBaseE
FNDA:195,_ZN5mongo18ScopedDbConnection17_setSocketTimeoutEv
FNDA:34,_ZN5mongo11PoolForHost16StoredConnection2okEl
FNDA:194,_ZN5mongo11PoolForHost4doneEPNS_16DBConnectionPoolEPNS_12DBClientBaseE
FNDA:194,_ZN5mongo11PoolForHost5clearEv
FNDA:0,_ZN5mongo11PoolForHost19getStaleConnectionsERSt6vectorIPNS_12DBClientBaseESaIS3_EE
FNDA:161,_ZN5mongo16DBConnectionPool13_finishCreateERKSsdPNS_12DBClientBaseE
FNDA:0,_ZN5mongo11PoolForHost23isBadSocketCreationTimeEm
FNDA:31,_ZN5mongo18ScopedDbConnection9clearPoolEv
FNDA:79,_ZN5mongo16DBConnectionPool3getERKSsd
FNDA:0,_ZN5mongo16DBConnectionPoolD0Ev
FNDA:0,_ZN5mongo16DBConnectionPool10appendInfoERNS_14BSONObjBuilderE
FNDA:0,_ZN5mongo11PoolForHost5flushEv
FNDA:0,_ZN5mongo16DBConnectionPool7addHookEPNS_16DBConnectionHookE
FNDA:28,_GLOBAL__sub_I_connpool.cpp
FNDA:28,_ZN5mongo16DBConnectionPoolC2Ev
FNDA:161,_ZN5mongo11PoolForHost10createdOneEPNS_12DBClientBaseE
FNDA:0,_ZN5mongo16DBConnectionPool16isConnectionGoodERKSsPNS_12DBClientBaseE
FNF:38
FNH:28
DA:35,189
DA:36,63
DA:37,63
DA:39,194
DA:40,894
DA:41,312
DA:42,156
DA:43,156
DA:45,194
DA:47,194
DA:48,194
DA:49,3
DA:50,3
DA:51,3
DA:53,573
DA:54,191
DA:55,1
DA:56,1
DA:59,380
DA:61,194
DA:63,3
DA:64,6
DA:65,3
DA:66,3
DA:67,12
DA:68,6
DA:69,12
DA:70,3
DA:72,3
DA:74,0
DA:75,0
DA:76,0
DA:79,214
DA:81,214
DA:83,642
DA:84,68
DA:85,34
DA:87,34
DA:88,0
DA:89,0
DA:90,0
DA:93,34
DA:95,34
DA:102,0
DA:104,0
DA:105,0
DA:106,0
DA:108,0
DA:110,0
DA:120,0
DA:121,0
DA:125,0
DA:126,0
DA:128,0
DA:130,0
DA:131,0
DA:134,0
DA:135,0
DA:136,0
DA:138,0
DA:139,0
DA:141,0
DA:144,0
DA:145,0
DA:147,0
DA:150,190
DA:151,190
DA:152,190
DA:153,190
DA:155,34
DA:157,34
DA:160,161
DA:161,161
DA:162,11
DA:163,161
DA:164,161
DA:166,375
DA:167,750
DA:168,11
DA:170,375
DA:176,28
DA:178,28
DA:181,84
DA:182,28
DA:184,214
DA:185,214
DA:186,428
DA:187,214
DA:188,428
DA:191,161
DA:193,161
DA:194,322
DA:195,161
DA:196,161
DA:200,161
DA:201,161
DA:208,161
DA:211,135
DA:212,270
DA:213,135
DA:215,0
DA:225,135
DA:226,268
DA:228,232
DA:231,79
DA:232,79
DA:233,79
DA:235,34
DA:245,90
DA:246,90
DA:248,45
DA:249,45
DA:250,0
DA:251,45
DA:254,194
DA:255,194
DA:256,582
DA:257,194
DA:260,84
DA:262,28
DA:264,0
DA:265,0
DA:266,0
DA:267,0
DA:268,0
DA:270,0
DA:272,31
DA:273,31
DA:274,31
DA:275,380
DA:276,128
DA:278,31
DA:280,0
DA:281,0
DA:282,0
DA:283,0
DA:284,0
DA:285,0
DA:287,0
DA:290,0
DA:292,0
DA:293,0
DA:294,0
DA:296,161
DA:297,322
DA:298,161
DA:300,0
DA:301,0
DA:305,195
DA:306,390
DA:307,195
DA:309,0
DA:310,0
DA:314,4
DA:315,8
DA:316,4
DA:318,0
DA:319,0
DA:323,0
DA:325,0
DA:326,0
DA:331,0
DA:333,0
DA:334,0
DA:335,0
DA:336,0
DA:338,0
DA:340,0
DA:341,0
DA:342,0
DA:343,0
DA:345,0
DA:346,0
DA:348,0
DA:349,0
DA:352,0
DA:355,0
DA:357,0
DA:358,0
DA:359,0
DA:360,0
DA:361,0
DA:362,0
DA:366,0
DA:367,0
DA:368,0
DA:370,0
DA:373,0
DA:374,0
DA:375,0
DA:377,0
DA:380,0
DA:381,0
DA:382,0
DA:384,3610
DA:385,3610
DA:386,3610
DA:389,44288
DA:390,2888
DA:393,0
DA:396,41400
DA:399,41400
DA:401,40849
DA:404,40678
DA:405,40678
DA:407,40678
DA:410,1995
DA:411,1995
DA:414,1615
DA:417,1444
DA:420,0
DA:421,0
DA:425,0
DA:430,0
DA:431,0
DA:432,0
DA:433,0
DA:437,0
DA:440,0
DA:446,0
DA:447,0
DA:448,0
DA:452,0
DA:454,0
DA:455,0
DA:461,0
DA:465,195
DA:466,390
DA:467,195
DA:468,79
DA:471,649
DA:472,195
DA:473,1
DA:474,0
DA:476,0
DA:486,4
DA:487,1
DA:488,1
DA:491,259
DA:493,31
DA:494,31
DA:495,31
DA:499,84
LF:243
LH:135
end_of_record
TN:
SF:/home/tbrock/Code/mongo-cxx-driver/src/mongo/client/connpool.h
FN:38,_ZN5mongo11PoolForHostC2Ev
FN:41,_ZN5mongo11PoolForHostC2ERKS0_
FN:113,_ZN5mongo16DBConnectionHookD0Ev
FN:113,_ZN5mongo16DBConnectionHookD2Ev
FN:114,_ZN5mongo16DBConnectionHook8onCreateEPNS_12DBClientBaseE
FN:115,_ZN5mongo16DBConnectionHook11onHandedOutEPNS_12DBClientBaseE
FN:116,_ZN5mongo16DBConnectionHook9onDestroyEPNS_12DBClientBaseE
FN:182,_ZNK5mongo16DBConnectionPool8taskNameEv
FN:219,_ZN5mongo18ScopedDbConnectionC2ERKSsd
FN:219,_ZN5mongo18ScopedDbConnectionC2ERKNS_16ConnectionStringEd
FN:220,_ZN5mongo17AScopedConnectionD2Ev
FN:220,_ZN5mongo17AScopedConnectionD0Ev
FN:281,_ZN5mongo18ScopedDbConnection3getEv
FN:286,_ZNK5mongo18ScopedDbConnection2okEv
FN:288,_ZNK5mongo18ScopedDbConnection7getHostEv
FN:304,_ZN5mongo18ScopedDbConnection4doneEv
FNDA:0,_ZN5mongo16DBConnectionHookD2Ev
FNDA:0,_ZN5mongo16DBConnectionHook8onCreateEPNS_12DBClientBaseE
FNDA:42,_ZN5mongo11PoolForHostC2ERKS0_
FNDA:135,_ZN5mongo18ScopedDbConnectionC2ERKNS_16ConnectionStringEd
FNDA:0,_ZN5mongo17AScopedConnectionD2Ev
FNDA:0,_ZN5mongo17AScopedConnectionD0Ev
FNDA:79,_ZN5mongo18ScopedDbConnectionC2ERKSsd
FNDA:64,_ZN5mongo18ScopedDbConnection3getEv
FNDA:0,_ZN5mongo16DBConnectionHookD0Ev
FNDA:0,_ZN5mongo16DBConnectionHook9onDestroyEPNS_12DBClientBaseE
FNDA:21,_ZN5mongo11PoolForHostC2Ev
FNDA:0,_ZNK5mongo18ScopedDbConnection2okEv
FNDA:0,_ZNK5mongo18ScopedDbConnection7getHostEv
FNDA:0,_ZN5mongo16DBConnectionHook11onHandedOutEPNS_12DBClientBaseE
FNDA:64,_ZN5mongo18ScopedDbConnection4doneEv
FNDA:0,_ZNK5mongo16DBConnectionPool8taskNameEv
FNF:16
FNH:6
DA:38,21
DA:39,63
DA:41,126
DA:42,84
DA:43,42
DA:44,42
DA:45,42
DA:46,42
DA:50,0
DA:55,0
DA:88,6
DA:89,5
DA:113,0
DA:114,0
DA:115,0
DA:116,0
DA:182,0
DA:192,653
DA:193,569
DA:219,214
DA:220,214
DA:249,158
DA:250,79
DA:251,79
DA:253,443
DA:254,116
DA:255,116
DA:270,123
DA:281,64
DA:282,66
DA:283,64
DA:286,0
DA:288,0
DA:294,1
DA:295,1
DA:304,64
DA:305,194
DA:306,64
DA:313,194
DA:314,194
LF:40
LH:31
end_of_record
TN:
SF:/home/tbrock/Code/mongo-cxx-driver/src/mongo/client/dbclient.cpp
FN:153,_ZNK5mongo16ConnectionString19sameLogicalEndpointERKS0_
FN:196,_ZN5mongo16ConnectionString12typeToStringENS0_14ConnectionTypeE
FN:217,_ZN5mongo5QueryC2ERKSs
FN:219,_ZN5mongo5QueryC2EPKc
FN:221,_ZN5mongo5Query4hintERKSs
FN:233,_ZN5mongo5Query11makeComplexEv
FN:241,_ZN5mongo5Query4sortERKNS_7BSONObjE
FN:246,_ZN5mongo5Query4hintENS_7BSONObjE
FN:251,_ZN5mongo5Query7explainEv
FN:256,_ZN5mongo5Query8snapshotEv
FN:261,_ZN5mongo5Query6minKeyERKNS_7BSONObjE
FN:266,_ZN5mongo5Query6maxKeyERKNS_7BSONObjE
FN:271,_ZN5mongo5Query9isComplexERKNS_7BSONObjEPb
FN:321,_ZNK5mongo5Query9isComplexEPb
FN:333,_ZNK5mongo5Query9getFilterEv
FN:340,_ZNK5mongo5Query7getSortEv
FN:348,_ZNK5mongo5Query7getHintEv
FN:353,_ZNK5mongo5Query9isExplainEv
FN:357,_ZNK5mongo5Query8toStringEv
FN:363,_ZN5mongo20DBClientWithCommands4isOkERKNS_7BSONObjE
FN:372,_ZN5mongo20DBClientWithCommands16availableOptionsEv
FN:388,_ZN5mongo20DBClientWithCommands17setRunCommandHookEN5boost8functionIFvPNS_14BSONObjBuilderEEEE
FN:392,_ZN5mongo20DBClientWithCommands21setPostRunCommandHookEN5boost8functionIFvRKNS_7BSONObjERKSsEEE
FN:453,_ZN5mongo20DBClientWithCommands20getLastErrorDetailedERKSsbbii
FN:485,_ZN5mongo20DBClientWithCommands12getLastErrorERKSsbbii
FN:608,_ZN5mongo20DBClientWithCommands4authERKNS_7BSONObjE
FN:692,_ZN5mongo20DBClientWithCommands6logoutERKSsRNS_7BSONObjE
FN:750,_ZN5mongo20DBClientWithCommands19getDbProfilingLevelERKSsRNS0_14ProfilingLevelEPNS_7BSONObjE
FN:786,_ZN5mongo20DBClientWithCommands4evalERKSsS2_
FN:860,_ZN5mongo17DBClientInterface7findOneERKSsRKNS_5QueryEPKNS_7BSONObjEi
FN:916,_ZN5mongo18DBClientConnection6logoutERKSsRNS_7BSONObjE
FN:921,_ZN5mongo18DBClientConnection10runCommandERKSsRKNS_7BSONObjERS3_i
FN:970,_ZN5mongo18DBClientConnection12setSoTimeoutEd
FN:977,_ZNK5mongo18DBClientConnection23getSockCreationMicroSecEv
FN:989,_ZN5mongo12DBClientBase5queryERKSsNS_5QueryEiiPKNS_7BSONObjEii
FN:999,_ZN5mongo12DBClientBase7getMoreERKSsxii
FN:1006,_ZN5mongo12DBClientBase5queryEN5boost8functionIFvRKNS_7BSONObjEEEERKSsNS_5QueryEPS4_i
FN:1007,_ZN5mongo20DBClientFunConvertorclERNS_27DBClientCursorBatchIteratorE
FN:1022,_ZN5mongo12DBClientBase5queryEN5boost8functionIFvRNS_27DBClientCursorBatchIteratorEEEERKSsNS_5QueryEPKNS_7BSONObjEi
FN:1045,_ZN5mongo18DBClientConnection24setReplSetClientCallbackEPNS_18DBClientReplicaSetE
FN:1049,_ZN5mongo18DBClientConnection5queryEN5boost8functionIFvRNS_27DBClientCursorBatchIteratorEEEERKSsNS_5QueryEPKNS_7BSONObjEi
FN:1141,_ZN5mongo12DBClientBase6removeERKSsNS_5QueryEb
FN:1168,_ZN5mongo12DBClientBase6updateERKSsNS_5QueryENS_7BSONObjEbb
FN:1314,_ZN5mongo20DBClientWithCommands15resetIndexCacheEv
FN:1341,_ZN5mongo18DBClientConnection3sayERNS_7MessageEbPSs
FN:1352,_ZN5mongo18DBClientConnection12sayPiggyBackERNS_7MessageE
FN:1356,_ZN5mongo18DBClientConnection4recvERNS_7MessageE
FN:1387,_ZN5mongo11getErrFieldERKNS_7BSONObjE
FN:1405,_ZN5mongo11hasErrFieldERKNS_7BSONObjE
FN:1426,_ZN5mongo18DBClientConnection10killCursorEx
FN:1445,_ZN5mongo18DBClientConnection10sslManagerEv
FN:1471,_ZN5mongo7nsGetDBERKSs
FN:1480,_ZN5mongo15nsGetCollectionERKSs
FN:1489,_GLOBAL__sub_I_dbclient.cpp
FNDA:29,_ZNK5mongo5Query9isComplexEPb
FNDA:0,_ZN5mongo18DBClientConnection10sslManagerEv
FNDA:0,_ZN5mongo20DBClientWithCommands16createCollectionERKSsxbiPNS_7BSONObjE
FNDA:3,_ZN5mongo12DBClientBase6removeERKSsNS_5QueryEb
FNDA:24,_ZN5mongo15nsGetCollectionERKSs
FNDA:100089,_ZN5mongo12DBClientBase6insertERKSsNS_7BSONObjEi
FNDA:0,_ZN5mongo5Query6maxKeyERKNS_7BSONObjE
FNDA:0,_ZN5mongo18DBClientConnection10killCursorEx
FNDA:100097,_ZN5mongo18DBClientConnection3sayERNS_7MessageEbPSs
FNDA:0,_ZN5mongo20DBClientWithCommands12copyDatabaseERKSsS2_S2_PNS_7BSONObjE
FNDA:0,_ZN5mongo12DBClientBase6insertERKSsRKSt6vectorINS_7BSONObjESaIS4_EEi
FNDA:13,_ZN5mongo20DBClientWithCommands20getLastErrorDetailedEbbii
FNDA:1,_ZN5mongo20DBClientWithCommands16getDatabaseNamesEv
FNDA:0,_ZN5mongo18DBClientConnection5queryEN5boost8functionIFvRNS_27DBClientCursorBatchIteratorEEEERKSsNS_5QueryEPKNS_7BSONObjEi
FNDA:109,_ZN5mongo17DBClientInterface5findNERSt6vectorINS_7BSONObjESaIS2_EERKSsNS_5QueryEiiPKS2_i
FNDA:1,_ZN5mongo5Query4hintENS_7BSONObjE
FNDA:1,_ZN5mongo20DBClientWithCommands5countERKSsRKNS_7BSONObjEiii
FNDA:0,_ZN5mongo20DBClientWithCommands9dropIndexERKSsS2_
FNDA:28,_GLOBAL__sub_I_dbclient.cpp
FNDA:0,_ZN5mongo18DBClientConnection4recvERNS_7MessageE
FNDA:4,_ZN5mongo20DBClientWithCommands9mapreduceERKSsS2_S2_NS_7BSONObjENS0_8MROutputE
FNDA:20,_ZN5mongo20DBClientWithCommands17setRunCommandHookEN5boost8functionIFvPNS_14BSONObjBuilderEEEE
FNDA:116,_ZN5mongo20DBClientWithCommands8isMasterERbPNS_7BSONObjE
FNDA:4,_ZN5mongo12DBClientBase6updateERKSsNS_5QueryENS_7BSONObjEi
FNDA:0,_ZN5mongo12DBClientBase5queryEN5boost8functionIFvRKNS_7BSONObjEEEERKSsNS_5QueryEPS4_i
FNDA:0,_ZN5mongo5Query6minKeyERKNS_7BSONObjE
FNDA:0,_ZN5mongo20DBClientFunConvertorclERNS_27DBClientCursorBatchIteratorE
FNDA:28,_ZN5mongo20DBClientWithCommands11ensureIndexERKSsNS_7BSONObjEbS2_bbii
FNDA:1,_ZN5mongo5Query5whereERKSsNS_7BSONObjE
FNDA:28,_Z41__static_initialization_and_destruction_0ii
FNDA:0,_ZNK5mongo16ConnectionString19sameLogicalEndpointERKS0_
FNDA:146,_ZNK5mongo18DBClientConnection23getSockCreationMicroSecEv
FNDA:0,_ZN5mongo20DBClientWithCommands6existsERKSs
FNDA:0,_ZN5mongo20DBClientWithCommands12getPrevErrorEv
FNDA:80,_ZN5mongo18DBClientConnection8_connectERSs
FNDA:0,_ZNK5mongo5Query9getFilterEv
FNDA:2,_ZN5mongo20DBClientWithCommands20createPasswordDigestERKSsS2_
FNDA:0,_ZN5mongo20DBClientWithCommands22isNotMasterErrorStringERKNS_11BSONElementE
FNDA:0,_ZN5mongo20DBClientWithCommands7reIndexERKSs
FNDA:121,_ZN5mongo18DBClientConnection4callERNS_7MessageES2_bPSs
FNDA:3,_ZN5mongo12DBClientBase6updateERKSsNS_5QueryENS_7BSONObjEbb
FNDA:80,_ZN5mongo20DBClientWithCommands4isOkERKNS_7BSONObjE
FNDA:3,_ZN5mongo20DBClientWithCommands4authERKNS_7BSONObjE
FNDA:0,_ZN5mongo20DBClientWithCommands4authERKSsS2_S2_RSsb
FNDA:32,_ZN5mongo20DBClientWithCommands15resetIndexCacheEv
FNDA:5,_ZN5mongo5QueryC2EPKc
FNDA:125,_ZN5mongo18DBClientConnection12setSoTimeoutEd
FNDA:0,_ZNK5mongo5Query7getHintEv
FNDA:0,_ZN5mongo5Query7explainEv
FNDA:0,_ZNK5mongo5Query9isExplainEv
FNDA:109,_ZN5mongo17DBClientInterface7findOneERKSsRKNS_5QueryEPKNS_7BSONObjEi
FNDA:0,_ZN5mongo20DBClientWithCommands11dropIndexesERKSs
FNDA:27,_ZN5mongo5Query17hasReadPreferenceERKNS_7BSONObjE
FNDA:27,_ZN5mongo5Query8readPrefENS_14ReadPreferenceERKNS_9BSONArrayE
FNDA:117,_ZN5mongo18DBClientConnection13checkResponseEPKciPbPSs
FNDA:1,_ZN5mongo20DBClientWithCommands9_countCmdERKSsRKNS_7BSONObjEiii
FNDA:2,_ZN5mongo20DBClientWithCommands12_authMongoCRERKSsS2_S2_PNS_7BSONObjEb
FNDA:0,_ZN5mongo16ConnectionString12_fillServersESs
FNDA:0,_ZN5mongo11serverAliveERKSs
FNDA:0,_ZN5mongo20DBClientWithCommands19setDbProfilingLevelERKSsNS0_14ProfilingLevelEPNS_7BSONObjE
FNDA:28,_ZN5mongo20DBClientWithCommands12genIndexNameERKNS_7BSONObjE
FNDA:24,_ZN5mongo7nsGetDBERKSs
FNDA:81,_ZN5mongo18DBClientConnection10runCommandERKSsRKNS_7BSONObjERS3_i
FNDA:3,_ZN5mongo12DBClientBase6removeERKSsNS_5QueryEi
FNDA:0,_ZNK5mongo5Query7getSortEv
FNDA:0,_ZN5mongo5Query4sortERKNS_7BSONObjE
FNDA:19,_ZN5mongo20DBClientWithCommands18getLastErrorStringERKNS_7BSONObjE
FNDA:0,_ZN5mongo20DBClientWithCommands4evalERKSsS2_
FNDA:3,_ZN5mongo20DBClientWithCommands4evalERKSsS2_RNS_7BSONObjERNS_11BSONElementEPS3_
FNDA:28,_ZN5mongo5Query11makeComplexEv
FNDA:3,_ZN5mongo20DBClientWithCommands5_authERKNS_7BSONObjE
FNDA:0,_ZN5mongo5QueryC2ERKSs
FNDA:0,_ZN5mongo20DBClientWithCommands10getIndexesERKSs
FNDA:201,_ZN5mongo16ConnectionString11_finishInitEv
FNDA:0,_ZN5mongo18DBClientConnection12sayPiggyBackERNS_7MessageE
FNDA:121,_ZN5mongo12DBClientBase5queryERKSsNS_5QueryEiiPKNS_7BSONObjEii
FNDA:0,_ZN5mongo20DBClientWithCommands9dropIndexERKSsNS_7BSONObjE
FNDA:46,_ZN5mongo16ConnectionString5parseERKSsRSs
FNDA:0,_ZN5mongo12DBClientBase5queryEN5boost8functionIFvRNS_27DBClientCursorBatchIteratorEEEERKSsNS_5QueryEPKNS_7BSONObjEi
FNDA:0,_ZN5mongo20DBClientWithCommands16availableOptionsEv
FNDA:1,_ZN5mongo5Query4hintERKSs
FNDA:6,_ZN5mongo20DBClientWithCommands12getLastErrorERKSsbbii
FNDA:0,_ZN5mongo20DBClientWithCommands9_authX509ERKSsS2_PNS_7BSONObjE
FNDA:0,_ZN5mongo5Query8snapshotEv
FNDA:0,_ZN5mongo20DBClientWithCommands23_lookupAvailableOptionsEv
FNDA:0,_ZN5mongo16ConnectionString12typeToStringENS0_14ConnectionTypeE
FNDA:19,_ZN5mongo20DBClientWithCommands20getLastErrorDetailedERKSsbbii
FNDA:80,_ZN5mongo18DBClientConnection7connectERKNS_11HostAndPortERSs
FNDA:1,_ZN5mongo20DBClientWithCommands18getCollectionNamesERKSs
FNDA:20,_ZN5mongo20DBClientWithCommands21setPostRunCommandHookEN5boost8functionIFvRKNS_7BSONObjERKSsEEE
FNDA:3,_ZN5mongo18DBClientConnection5_authERKNS_7BSONObjE
FNDA:12,_ZN5mongo20DBClientWithCommands13simpleCommandERKSsPNS_7BSONObjES2_
FNDA:0,_ZN5mongo12DBClientBase7getMoreERKSsxii
FNDA:0,_ZN5mongo11hasErrFieldERKNS_7BSONObjE
FNDA:121,_ZN5mongo15assembleRequestERKSsNS_7BSONObjEiiPKS2_iRNS_7MessageE
FNDA:0,_ZN5mongo20DBClientWithCommands19getDbProfilingLevelERKSsRNS0_14ProfilingLevelEPNS_7BSONObjE
FNDA:81,_ZN5mongo20DBClientWithCommands10runCommandERKSsRKNS_7BSONObjERS3_i
FNDA:0,_ZN5mongo18DBClientConnection6logoutERKSsRNS_7BSONObjE
FNDA:0,_ZN5mongo20DBClientWithCommands6logoutERKSsRNS_7BSONObjE
FNDA:0,_ZN5mongo11getErrFieldERKNS_7BSONObjE
FNDA:20,_ZN5mongo18DBClientConnection24setReplSetClientCallbackEPNS_18DBClientReplicaSetE
FNDA:0,_ZN5mongo18DBClientConnection16_checkConnectionEv
FNDA:56,_ZN5mongo5Query9isComplexERKNS_7BSONObjEPb
FNDA:201,_ZNK5mongo16ConnectionString7connectERSsd
FNDA:6,_ZN5mongo20DBClientWithCommands12getLastErrorEbbii
FNDA:1,_ZNK5mongo5Query8toStringEv
FNF:106
FNH:60
DA:46,0
DA:54,0
DA:57,0
DA:58,0
DA:59,0
DA:60,0
DA:61,0
DA:66,0
DA:67,0
DA:68,0
DA:70,0
DA:72,0
DA:74,201
DA:78,1608
DA:79,402
DA:80,155
DA:84,201
DA:85,201
DA:86,0
DA:87,1407
DA:88,201
DA:89,0
DA:90,804
DA:92,402
DA:93,201
DA:95,28
DA:98,201
DA:100,201
DA:102,46
DA:103,46
DA:104,92
DA:105,92
DA:106,0
DA:109,46
DA:110,46
DA:115,0
DA:116,0
DA:117,0
DA:119,0
DA:120,0
DA:132,155
DA:133,155
DA:136,155
DA:138,620
DA:139,465
DA:141,155
DA:145,0
DA:149,0
DA:153,0
DA:154,0
DA:157,0
DA:161,0
DA:163,0
DA:164,0
DA:166,0
DA:167,0
DA:169,0
DA:171,0
DA:173,0
DA:176,46
DA:178,46
DA:179,46
DA:181,0
DA:184,46
DA:186,46
DA:187,92
DA:189,0
DA:190,0
DA:192,0
DA:196,0
DA:197,0
DA:199,0
DA:201,0
DA:203,0
DA:205,0
DA:207,0
DA:209,0
DA:213,56
DA:214,56
DA:215,56
DA:217,0
DA:219,5
DA:221,2
DA:223,1
DA:225,1
DA:226,1
DA:227,2
DA:228,1
DA:229,2
DA:230,1
DA:233,28
DA:234,28
DA:235,0
DA:236,28
DA:237,84
DA:238,56
DA:241,0
DA:242,0
DA:243,0
DA:246,1
DA:247,1
DA:248,1
DA:251,0
DA:252,0
DA:253,0
DA:256,0
DA:257,0
DA:258,0
DA:261,0
DA:262,0
DA:263,0
DA:266,0
DA:267,0
DA:268,0
DA:271,56
DA:272,56
DA:273,27
DA:277,29
DA:278,0
DA:285,27
DA:288,27
DA:310,27
DA:311,27
DA:313,54
DA:314,2
DA:317,81
DA:318,54
DA:321,29
DA:322,29
DA:325,27
DA:326,135
DA:327,27
DA:328,81
DA:329,54
DA:330,27
DA:333,0
DA:335,0
DA:336,0
DA:338,0
DA:340,0
DA:341,0
DA:343,0
DA:344,0
DA:345,0
DA:346,0
DA:348,0
DA:349,0
DA:351,0
DA:353,0
DA:354,0
DA:357,1
DA:358,1
DA:363,80
DA:364,80
DA:367,0
DA:368,0
DA:372,0
DA:373,0
DA:374,0
DA:375,0
DA:377,0
DA:380,0
DA:382,0
DA:383,0
DA:388,20
DA:389,20
DA:390,20
DA:392,20
DA:393,20
DA:394,20
DA:396,81
DA:400,81
DA:401,162
DA:402,0
DA:403,0
DA:404,0
DA:406,0
DA:409,323
DA:411,160
DA:412,0
DA:414,160
DA:420,12
DA:422,12
DA:423,12
DA:424,24
DA:425,12
DA:426,36
DA:429,1
DA:430,1
DA:432,3
DA:433,0
DA:434,2
DA:437,1
DA:438,1
DA:439,2
DA:440,2
DA:441,3
DA:442,1
DA:443,0
DA:444,1
DA:445,0
DA:446,2
DA:449,13
DA:450,26
DA:453,19
DA:459,38
DA:460,19
DA:462,19
DA:463,0
DA:464,19
DA:465,0
DA:468,19
DA:469,0
DA:470,19
DA:471,0
DA:473,19
DA:474,0
DA:476,38
DA:478,19
DA:481,6
DA:482,12
DA:485,6
DA:490,6
DA:491,12
DA:494,19
DA:495,19
DA:496,19
DA:497,19
DA:498,19
DA:499,19
DA:502,0
DA:503,0
DA:504,0
DA:505,0
DA:509,28
DA:511,0
DA:513,0
DA:514,0
DA:517,28
DA:519,2
DA:520,2
DA:523,3
DA:528,10
DA:530,14
DA:532,3
DA:534,3
DA:536,3
DA:539,1
DA:544,7
DA:549,7
DA:553,7
DA:558,7
DA:560,7
DA:562,2
DA:565,1
DA:567,0
DA:570,0
DA:575,0
DA:580,0
DA:582,0
DA:585,0
DA:587,0
DA:591,0
DA:594,0
DA:596,0
DA:599,1
DA:600,2
DA:604,0
DA:606,2
DA:608,3
DA:609,3
DA:610,2
DA:612,0
DA:618,0
DA:622,0
DA:623,0
DA:632,2
DA:638,2
DA:639,2
DA:640,4
DA:643,2
DA:647,2
DA:648,4
DA:649,2
DA:653,4
DA:656,16
DA:660,2
DA:661,2
DA:662,2
DA:663,2
DA:664,2
DA:666,6
DA:667,4
DA:670,2
DA:674,1
DA:677,0
DA:681,0
DA:682,0
DA:683,0
DA:685,0
DA:689,0
DA:692,0
DA:693,0
DA:694,0
DA:696,28
DA:698,116
DA:700,116
DA:701,0
DA:702,232
DA:703,116
DA:704,232
DA:707,0
DA:708,0
DA:710,0
DA:711,0
DA:712,0
DA:713,0
DA:714,0
DA:715,0
DA:716,0
DA:717,0
DA:720,0
DA:722,0
DA:723,0
DA:724,0
DA:725,0
DA:726,0
DA:727,0
DA:728,0
DA:731,0
DA:733,0
DA:735,0
DA:739,0
DA:740,0
DA:743,0
DA:744,0
DA:745,0
DA:748,28
DA:750,0
DA:752,0
DA:753,0
DA:754,0
DA:755,0
DA:760,112
DA:762,4
DA:763,4
DA:764,12
DA:765,4
DA:766,4
DA:767,4
DA:768,0
DA:769,12
DA:771,12
DA:772,4
DA:775,3
DA:776,3
DA:777,4
DA:778,3
DA:779,4
DA:780,6
DA:781,2
DA:782,3
DA:783,3
DA:786,0
DA:789,0
DA:792,1
DA:794,6
DA:795,4
DA:799,2
DA:800,6
DA:801,20
DA:804,1
DA:807,1
DA:810,1
DA:811,6
DA:812,5
DA:813,12
DA:814,3
DA:818,1
DA:821,0
DA:823,0
DA:824,0
DA:825,0
DA:830,3
DA:832,3
DA:836,8
DA:839,3
DA:840,2
DA:845,109
DA:846,109
DA:849,436
DA:851,122
DA:853,101
DA:854,108
DA:856,304
DA:858,107
DA:860,109
DA:862,218
DA:863,210
DA:866,80
DA:867,80
DA:868,160
DA:869,80
DA:872,80
DA:873,160
DA:874,80
DA:878,240
DA:879,80
DA:881,160
DA:882,0
DA:883,0
DA:884,0
DA:887,240
DA:889,160
DA:890,0
DA:891,0
DA:892,0
DA:895,240
DA:896,0
DA:897,0
DA:898,0
DA:899,0
DA:902,80
DA:906,80
DA:907,80
DA:909,0
DA:916,0
DA:917,0
DA:918,0
DA:919,0
DA:921,81
DA:925,81
DA:928,4
DA:929,0
DA:936,0
DA:937,0
DA:938,0
DA:940,0
DA:941,0
DA:944,0
DA:946,0
DA:948,0
DA:949,0
DA:950,0
DA:951,0
DA:952,0
DA:955,0
DA:956,0
DA:958,0
DA:970,125
DA:971,125
DA:972,250
DA:973,158
DA:975,125
DA:977,146
DA:978,292
DA:979,292
DA:989,121
DA:993,242
DA:994,121
DA:999,0
DA:1000,0
DA:1001,0
DA:1006,0
DA:1007,0
DA:1008,0
DA:1009,0
DA:1011,0
DA:1015,0
DA:1017,0
DA:1018,0
DA:1019,0
DA:1022,0
DA:1030,0
DA:1032,0
DA:1033,0
DA:1037,0
DA:1038,0
DA:1039,0
DA:1040,0
DA:1042,0
DA:1045,20
DA:1046,20
DA:1047,20
DA:1049,0
DA:1056,0
DA:1057,0
DA:1061,0
DA:1062,0
DA:1064,0
DA:1065,0
DA:1071,0
DA:1072,0
DA:1073,0
DA:1074,0
DA:1077,0
DA:1080,0
DA:1092,0
DA:1095,100089
DA:1096,100089
DA:1098,100089
DA:1100,100089
DA:1101,100089
DA:1102,0
DA:1104,100089
DA:1105,0
DA:1107,100089
DA:1108,100089
DA:1109,100089
DA:1111,100089
DA:1113,200178
DA:1114,100089
DA:1117,0
DA:1118,0
DA:1120,0
DA:1122,0
DA:1123,0
DA:1124,0
DA:1126,0
DA:1127,0
DA:1128,0
DA:1131,0
DA:1132,0
DA:1133,0
DA:1134,0
DA:1136,0
DA:1138,0
DA:1139,0
DA:1141,3
DA:1142,3
DA:1143,3
DA:1144,9
DA:1145,3
DA:1147,3
DA:1148,3
DA:1150,3
DA:1151,3
DA:1152,3
DA:1153,0
DA:1154,0
DA:1157,3
DA:1158,3
DA:1159,3
DA:1161,3
DA:1163,3
DA:1165,6
DA:1166,3
DA:1168,3
DA:1169,3
DA:1170,3
DA:1171,3
DA:1172,12
DA:1173,3
DA:1175,4
DA:1177,4
DA:1179,4
DA:1180,4
DA:1181,0
DA:1182,0
DA:1185,4
DA:1186,4
DA:1187,4
DA:1189,4
DA:1190,4
DA:1192,8
DA:1193,4
DA:1195,4
DA:1196,4
DA:1198,0
DA:1199,0
DA:1202,0
DA:1203,0
DA:1204,0
DA:1207,0
DA:1209,0
DA:1210,0
DA:1211,0
DA:1212,0
DA:1213,0
DA:1215,0
DA:1216,0
DA:1218,0
DA:1220,0
DA:1225,0
DA:1226,0
DA:1227,0
DA:1229,0
DA:1231,0
DA:1232,0
DA:1233,0
DA:1236,0
DA:1238,0
DA:1239,0
DA:1240,0
DA:1243,0
DA:1246,28
DA:1247,28
DA:1249,28
DA:1250,68
DA:1251,40
DA:1253,40
DA:1256,12
DA:1258,40
DA:1259,40
DA:1260,40
DA:1262,0
DA:1264,28
DA:1267,28
DA:1275,28
DA:1276,28
DA:1277,84
DA:1279,28
DA:1282,28
DA:1283,0
DA:1287,28
DA:1288,28
DA:1292,28
DA:1293,0
DA:1295,28
DA:1296,26
DA:1298,28
DA:1299,0
DA:1301,56
DA:1304,27
DA:1305,27
DA:1307,27
DA:1308,0
DA:1310,135
DA:1311,55
DA:1314,32
DA:1315,32
DA:1316,32
DA:1326,121
DA:1329,121
DA:1330,121
DA:1331,121
DA:1332,121
DA:1333,121
DA:1334,121
DA:1335,121
DA:1336,121
DA:1337,0
DA:1338,121
DA:1339,121
DA:1341,100097
DA:1344,100097
DA:1350,100097
DA:1352,0
DA:1353,0
DA:1354,0
DA:1356,0
DA:1357,0
DA:1361,0
DA:1362,0
DA:1365,121
DA:1372,121
DA:1373,1
DA:1374,1
DA:1375,0
DA:1380,3
DA:1381,3
DA:1382,3
DA:1387,0
DA:1388,0
DA:1389,0
DA:1390,0
DA:1395,0
DA:1396,0
DA:1397,0
DA:1399,0
DA:1405,0
DA:1406,0
DA:1409,117
DA:1414,117
DA:1415,117
DA:1417,117
DA:1418,0
DA:1420,0
DA:1421,0
DA:1424,117
DA:1426,0
DA:1428,0
DA:1429,0
DA:1430,0
DA:1432,0
DA:1433,0
DA:1435,0
DA:1436,0
DA:1438,0
DA:1439,0
DA:1442,28
DA:1445,0
DA:1447,0
DA:1449,0
DA:1451,0
DA:1459,0
DA:1460,0
DA:1462,0
DA:1464,0
DA:1466,0
DA:1471,24
DA:1472,24
DA:1473,24
DA:1474,0
DA:1476,24
DA:1480,24
DA:1481,24
DA:1482,24
DA:1483,0
DA:1485,24
DA:1489,84
LF:711
LH:377
end_of_record
TN:
SF:/home/tbrock/Code/mongo-cxx-driver/src/mongo/client/dbclient_rs.cpp
FN:42,_Z41__static_initialization_and_destruction_0ii
FN:46,_ZN5mongo12_GLOBAL__N_128PopulateReadPrefSecOkCmdListC2Ev
FN:79,_ZN5mongo12_GLOBAL__N_116_extractReadPrefERKNS_7BSONObjEi
FN:156,_ZN5mongo18DBClientReplicaSetC2ERKSsRKSt6vectorINS_11HostAndPortESaIS4_EEd
FN:161,_ZN5mongo18DBClientReplicaSetD0Ev
FN:161,_ZN5mongo18DBClientReplicaSetD2Ev
FN:164,_ZNK5mongo18DBClientReplicaSet11_getMonitorEv
FN:173,_ZNK5mongo18DBClientReplicaSet16getServerAddressEv
FN:183,_ZN5mongo18DBClientReplicaSet17setRunCommandHookEN5boost8functionIFvPNS_14BSONObjBuilderEEEE
FN:194,_ZN5mongo18DBClientReplicaSet21setPostRunCommandHookEN5boost8functionIFvRKNS_7BSONObjERKSsEEE
FN:211,_ZN5mongo18DBClientReplicaSet16isStillConnectedEv
FN:231,_ZN5mongoL17_isSecondaryQueryERKSsRKNS_7BSONObjERKNS_21ReadPreferenceSettingE.isra.147
FN:272,_ZN5mongo18DBClientReplicaSet16isSecondaryQueryERKSsRKNS_7BSONObjEi
FN:279,_ZN5mongo18DBClientReplicaSet11checkMasterEv
FN:326,_ZN5mongo18DBClientReplicaSet13checkLastHostEPKNS_21ReadPreferenceSettingE
FN:346,_ZN5mongo18DBClientReplicaSet5_authEPNS_18DBClientConnectionE
FN:359,_ZN5mongo18DBClientReplicaSet10masterConnEv
FN:363,_ZN5mongo18DBClientReplicaSet9slaveConnEv
FN:374,_ZN5mongo18DBClientReplicaSet7connectEv
FN:381,_ZN5mongo18DBClientReplicaSet5_authERKNS_7BSONObjE
FN:451,_ZN5mongo18DBClientReplicaSet6logoutERKSsRNS_7BSONObjE
FN:475,_ZN5mongo18DBClientReplicaSet6insertERKSsNS_7BSONObjEi
FN:479,_ZN5mongo18DBClientReplicaSet6insertERKSsRKSt6vectorINS_7BSONObjESaIS4_EEi
FN:483,_ZN5mongo18DBClientReplicaSet6removeERKSsNS_5QueryEi
FN:487,_ZN5mongo18DBClientReplicaSet6updateERKSsNS_5QueryENS_7BSONObjEi
FN:491,_ZN5mongo18DBClientReplicaSet5queryERKSsNS_5QueryEiiPKNS_7BSONObjEii
FN:553,_ZN5mongo18DBClientReplicaSet7findOneERKSsRKNS_5QueryEPKNS_7BSONObjEi
FN:609,_ZN5mongo18DBClientReplicaSet10killCursorEx
FN:617,_ZN5mongo18DBClientReplicaSet10isntMasterEv
FN:628,_ZN5mongo18DBClientReplicaSet21checkSlaveQueryResultESt8auto_ptrINS_14DBClientCursorEE
FN:649,_ZN5mongo18DBClientReplicaSet13isntSecondaryEv
FN:656,_ZN5mongo18DBClientReplicaSet19selectNodeUsingTagsEN5boost10shared_ptrINS_21ReadPreferenceSettingEEE
FN:717,_ZN5mongo18DBClientReplicaSet3sayERNS_7MessageEbPSs
FN:805,_ZN5mongo18DBClientReplicaSet4recvERNS_7MessageE
FN:819,_ZN5mongo18DBClientReplicaSet13checkResponseEPKciPbPSs
FN:892,_ZN5mongo18DBClientReplicaSet4callERNS_7MessageES2_bPSs
FN:974,_ZN5mongo18DBClientReplicaSet26invalidateLastSlaveOkCacheEv
FN:986,_ZN5mongo6TagSetC2Ev
FN:988,_ZN5mongo16readPrefToStringENS_14ReadPreferenceE
FN:1005,_ZNK5mongo21ReadPreferenceSetting6toBSONEv
FN:1011,_GLOBAL__sub_I_dbclient_rs.cpp
FNDA:0,_ZN5mongo18DBClientReplicaSet13isntSecondaryEv
FNDA:0,_ZN5mongo18DBClientReplicaSet17setRunCommandHookEN5boost8functionIFvPNS_14BSONObjBuilderEEEE
FNDA:0,_ZN5mongo18DBClientReplicaSet6insertERKSsRKSt6vectorINS_7BSONObjESaIS4_EEi
FNDA:27,_ZN5mongoL17_isSecondaryQueryERKSsRKNS_7BSONObjERKNS_21ReadPreferenceSettingE.isra.147
FNDA:24,_ZN5mongo18DBClientReplicaSetD2Ev
FNDA:0,_ZN5mongo18DBClientReplicaSet3sayERNS_7MessageEbPSs
FNDA:0,_ZN5mongo18DBClientReplicaSetD0Ev
FNDA:44,_ZN5mongo6TagSetC2Ev
FNDA:0,_ZN5mongo18DBClientReplicaSet6updateERKSsNS_5QueryENS_7BSONObjEi
FNDA:0,_ZN5mongo18DBClientReplicaSet6insertERKSsNS_7BSONObjEi
FNDA:0,_ZN5mongo18DBClientReplicaSet4recvERNS_7MessageE
FNDA:0,_ZN5mongo18DBClientReplicaSet4callERNS_7MessageES2_bPSs
FNDA:18,_ZN5mongo18DBClientReplicaSet21checkSlaveQueryResultESt8auto_ptrINS_14DBClientCursorEE
FNDA:24,_ZN5mongo18DBClientReplicaSet19selectNodeUsingTagsEN5boost10shared_ptrINS_21ReadPreferenceSettingEEE
FNDA:20,_ZN5mongo18DBClientReplicaSet5_authEPNS_18DBClientConnectionE
FNDA:28,_GLOBAL__sub_I_dbclient_rs.cpp
FNDA:0,_ZN5mongo18DBClientReplicaSet13checkResponseEPKciPbPSs
FNDA:1,_ZN5mongo18DBClientReplicaSet9slaveConnEv
FNDA:0,_ZNK5mongo21ReadPreferenceSetting6toBSONEv
FNDA:27,_ZN5mongo18DBClientReplicaSet5queryERKSsNS_5QueryEiiPKNS_7BSONObjEii
FNDA:0,_ZN5mongo18DBClientReplicaSet16isSecondaryQueryERKSsRKNS_7BSONObjEi
FNDA:0,_ZN5mongo18DBClientReplicaSet10masterConnEv
FNDA:28,_ZN5mongo12_GLOBAL__N_128PopulateReadPrefSecOkCmdListC2Ev
FNDA:0,_ZN5mongo18DBClientReplicaSet10isntMasterEv
FNDA:0,_ZN5mongo18DBClientReplicaSet6removeERKSsNS_5QueryEi
FNDA:0,_ZN5mongo16readPrefToStringENS_14ReadPreferenceE
FNDA:24,_ZN5mongo18DBClientReplicaSet13checkLastHostEPKNS_21ReadPreferenceSettingE
FNDA:1,_ZN5mongo18DBClientReplicaSet26invalidateLastSlaveOkCacheEv
FNDA:0,_ZNK5mongo18DBClientReplicaSet16getServerAddressEv
FNDA:0,_ZN5mongo18DBClientReplicaSet16isStillConnectedEv
FNDA:0,_ZN5mongo18DBClientReplicaSet7findOneERKSsRKNS_5QueryEPKNS_7BSONObjEi
FNDA:42,_ZNK5mongo18DBClientReplicaSet11_getMonitorEv
FNDA:0,_ZN5mongo18DBClientReplicaSet7connectEv
FNDA:0,_ZN5mongo18DBClientReplicaSet6logoutERKSsRNS_7BSONObjE
FNDA:11,_ZN5mongo18DBClientReplicaSet11checkMasterEv
FNDA:0,_ZN5mongo18DBClientReplicaSet10killCursorEx
FNDA:27,_ZN5mongo12_GLOBAL__N_116_extractReadPrefERKNS_7BSONObjEi
FNDA:28,_Z41__static_initialization_and_destruction_0ii
FNDA:0,_ZN5mongo18DBClientReplicaSet5_authERKNS_7BSONObjE
FNDA:24,_ZN5mongo18DBClientReplicaSetC2ERKSsRKSt6vectorINS_11HostAndPortESaIS4_EEd
FNDA:0,_ZN5mongo18DBClientReplicaSet21setPostRunCommandHookEN5boost8functionIFvRKNS_7BSONObjERKSsEEE
FNF:41
FNH:17
DA:42,28
DA:46,28
DA:47,56
DA:48,56
DA:49,56
DA:50,56
DA:51,56
DA:52,56
DA:53,56
DA:54,56
DA:55,56
DA:56,28
DA:57,28
DA:79,27
DA:81,27
DA:83,27
DA:87,54
DA:88,54
DA:91,0
DA:94,27
DA:95,54
DA:96,27
DA:98,54
DA:99,81
DA:101,54
DA:103,27
DA:106,23
DA:109,15
DA:112,10
DA:115,3
DA:119,0
DA:122,54
DA:123,4
DA:124,4
DA:125,4
DA:127,8
DA:128,2
DA:129,0
DA:130,0
DA:133,4
DA:136,75
DA:142,0
DA:143,0
DA:144,0
DA:156,72
DA:157,192
DA:158,96
DA:159,24
DA:161,192
DA:162,24
DA:164,84
DA:165,42
DA:167,42
DA:168,42
DA:169,42
DA:173,0
DA:174,0
DA:175,0
DA:177,0
DA:178,0
DA:180,0
DA:183,0
DA:185,0
DA:186,0
DA:188,0
DA:189,0
DA:191,0
DA:192,0
DA:194,0
DA:197,0
DA:198,0
DA:200,0
DA:201,0
DA:203,0
DA:204,0
DA:211,0
DA:213,0
DA:214,0
DA:215,0
DA:219,0
DA:220,0
DA:221,0
DA:223,0
DA:227,0
DA:231,27
DA:236,27
DA:238,23
DA:246,0
DA:247,0
DA:253,0
DA:254,0
DA:258,0
DA:259,0
DA:260,0
DA:263,0
DA:264,0
DA:272,0
DA:275,0
DA:276,0
DA:279,11
DA:280,11
DA:281,22
DA:283,54
DA:285,0
DA:286,0
DA:288,0
DA:289,0
DA:292,9
DA:294,18
DA:297,9
DA:304,9
DA:310,18
DA:311,0
DA:312,0
DA:313,0
DA:314,0
DA:317,9
DA:318,27
DA:319,45
DA:320,45
DA:322,18
DA:323,18
DA:326,24
DA:328,30
DA:333,12
DA:338,10
DA:339,1
DA:340,1
DA:346,20
DA:347,100
DA:349,0
DA:357,20
DA:359,0
DA:360,0
DA:363,1
DA:365,3
DA:366,2
DA:368,1
DA:369,1
DA:371,2
DA:374,0
DA:376,0
DA:377,0
DA:384,0
DA:389,0
DA:391,0
DA:396,0
DA:398,0
DA:400,0
DA:404,0
DA:407,0
DA:413,0
DA:414,0
DA:415,0
DA:417,0
DA:418,0
DA:419,0
DA:422,0
DA:441,0
DA:443,0
DA:444,0
DA:447,0
DA:451,0
DA:452,0
DA:454,0
DA:455,0
DA:461,0
DA:464,0
DA:471,0
DA:475,0
DA:476,0
DA:477,0
DA:479,0
DA:480,0
DA:481,0
DA:483,0
DA:484,0
DA:485,0
DA:487,0
DA:488,0
DA:491,27
DA:499,27
DA:500,54
DA:502,23
DA:503,0
DA:504,0
DA:505,0
DA:506,0
DA:508,0
DA:509,0
DA:510,0
DA:513,46
DA:515,46
DA:517,23
DA:523,72
DA:525,54
DA:539,30
DA:540,5
DA:541,5
DA:544,15
DA:547,4
DA:549,4
DA:550,8
DA:553,0
DA:558,0
DA:559,0
DA:561,0
DA:562,0
DA:563,0
DA:564,0
DA:565,0
DA:567,0
DA:568,0
DA:569,0
DA:573,0
DA:575,0
DA:577,0
DA:581,0
DA:595,0
DA:596,0
DA:597,0
DA:600,0
DA:603,0
DA:606,0
DA:609,0
DA:614,0
DA:617,0
DA:618,0
DA:621,0
DA:622,0
DA:623,0
DA:625,0
DA:626,0
DA:628,18
DA:629,18
DA:632,18
DA:633,18
DA:638,0
DA:639,0
DA:640,0
DA:641,0
DA:642,0
DA:643,0
DA:649,0
DA:650,0
DA:652,0
DA:653,0
DA:654,0
DA:656,24
DA:657,47
DA:658,24
DA:660,1
DA:663,56
DA:666,23
DA:667,92
DA:669,46
DA:671,5
DA:676,18
DA:682,36
DA:683,7
DA:684,14
DA:685,7
DA:687,7
DA:689,14
DA:693,22
DA:698,11
DA:702,11
DA:703,11
DA:705,11
DA:706,33
DA:707,55
DA:708,55
DA:710,22
DA:712,11
DA:714,22
DA:717,0
DA:719,0
DA:720,0
DA:722,0
DA:724,0
DA:726,0
DA:727,0
DA:730,0
DA:731,0
DA:733,0
DA:734,0
DA:735,0
DA:736,0
DA:737,0
DA:739,0
DA:740,0
DA:741,0
DA:745,0
DA:746,0
DA:748,0
DA:750,0
DA:754,0
DA:755,0
DA:758,0
DA:760,0
DA:761,0
DA:762,0
DA:779,0
DA:780,0
DA:781,0
DA:784,0
DA:785,0
DA:788,0
DA:791,0
DA:792,0
DA:793,0
DA:795,0
DA:796,0
DA:798,0
DA:799,0
DA:801,0
DA:802,0
DA:805,0
DA:807,0
DA:811,0
DA:819,0
DA:823,0
DA:824,0
DA:825,0
DA:827,0
DA:830,0
DA:831,0
DA:832,0
DA:834,0
DA:839,0
DA:842,0
DA:845,0
DA:850,0
DA:851,0
DA:852,0
DA:854,0
DA:855,0
DA:857,0
DA:858,0
DA:861,0
DA:862,0
DA:866,0
DA:867,0
DA:868,0
DA:871,0
DA:872,0
DA:876,0
DA:880,0
DA:881,0
DA:882,0
DA:884,0
DA:885,0
DA:892,0
DA:896,0
DA:898,0
DA:900,0
DA:901,0
DA:902,0
DA:905,0
DA:906,0
DA:908,0
DA:909,0
DA:910,0
DA:911,0
DA:912,0
DA:914,0
DA:915,0
DA:916,0
DA:918,0
DA:920,0
DA:922,0
DA:926,0
DA:927,0
DA:930,0
DA:944,0
DA:947,0
DA:949,0
DA:950,0
DA:951,0
DA:953,0
DA:956,0
DA:957,0
DA:958,0
DA:959,0
DA:960,0
DA:961,0
DA:962,0
DA:965,0
DA:966,0
DA:974,1
DA:979,3
DA:980,2
DA:981,1
DA:982,1
DA:985,84
DA:986,88
DA:988,0
DA:989,0
DA:991,0
DA:993,0
DA:995,0
DA:997,0
DA:999,0
DA:1001,0
DA:1005,0
DA:1006,0
DA:1007,0
DA:1008,0
DA:1009,0
DA:1011,84
LF:410
LH:136
end_of_record
TN:
SF:/home/tbrock/Code/mongo-cxx-driver/src/mongo/client/dbclient_rs.h
FN:124,_ZNK5mongo18DBClientReplicaSet8isFailedEv
FN:129,_ZNK5mongo18DBClientReplicaSet12getSoTimeoutEv
FN:131,_ZNK5mongo18DBClientReplicaSet8toStringEv
FN:135,_ZNK5mongo18DBClientReplicaSet4typeEv
FN:136,_ZNK5mongo18DBClientReplicaSet13lazySupportedEv
FN:141,_ZN5mongo18DBClientReplicaSet8callReadERNS_7MessageES2_
FN:165,_ZN5mongo18DBClientReplicaSet12sayPiggyBackERNS_7MessageE
FNDA:0,_ZNK5mongo18DBClientReplicaSet12getSoTimeoutEv
FNDA:0,_ZNK5mongo18DBClientReplicaSet4typeEv
FNDA:0,_ZNK5mongo18DBClientReplicaSet8toStringEv
FNDA:0,_ZN5mongo18DBClientReplicaSet12sayPiggyBackERNS_7MessageE
FNDA:0,_ZNK5mongo18DBClientReplicaSet13lazySupportedEv
FNDA:0,_ZN5mongo18DBClientReplicaSet8callReadERNS_7MessageES2_
FNDA:0,_ZNK5mongo18DBClientReplicaSet8isFailedEv
FNF:7
FNH:0
DA:124,0
DA:129,0
DA:131,0
DA:135,0
DA:136,0
DA:141,0
DA:165,0
DA:248,24
DA:261,706
DA:277,72
DA:284,3
DA:290,295
DA:299,295
DA:303,7
LF:14
LH:7
end_of_record
TN:
SF:/home/tbrock/Code/mongo-cxx-driver/src/mongo/client/dbclientcursor.cpp
FN:34,_ZN5mongo14DBClientCursor15_finishConsInitEv
FN:38,_ZN5mongo14DBClientCursor13nextBatchSizeEv
FN:49,_ZN5mongo14DBClientCursor13_assembleInitERNS_7MessageE
FN:63,_ZN5mongo14DBClientCursor4initEv
FN:81,_ZN5mongo14DBClientCursor8initLazyEb
FN:97,_ZN5mongo14DBClientCursor14initLazyFinishERb
FN:127,_ZN5mongo14DBClientCursor11initCommandEv
FN:137,_ZN5mongo14DBClientCursor11requestMoreEv
FN:172,_ZN5mongo14DBClientCursor18exhaustReceiveMoreEv
FN:184,_ZN5mongo14DBClientCursor12dataReceivedERbRSs
FN:219,_ZN5mongo14DBClientCursor4moreEv
FN:238,_ZN5mongo14DBClientCursor4nextEv
FN:255,_ZN5mongo14DBClientCursor4peekERSt6vectorINS_7BSONObjESaIS2_EEi
FN:279,_ZN5mongo14DBClientCursor9peekFirstEv
FN:287,_ZN5mongo14DBClientCursor9peekErrorEPNS_7BSONObjE
FN:300,_ZN5mongo14DBClientCursor6attachEPNS_17AScopedConnectionE
FN:322,_ZN5mongo14DBClientCursorD2Ev
FN:322,_ZN5mongo14DBClientCursorD0Ev
FN:363,_Z41__static_initialization_and_destruction_0ii
FN:363,_GLOBAL__sub_I_dbclientcursor.cpp
FNDA:164,_ZN5mongo14DBClientCursorD2Ev
FNDA:0,_ZN5mongo14DBClientCursor11requestMoreEv
FNDA:1,_ZN5mongo14DBClientCursor4peekERSt6vectorINS_7BSONObjESaIS2_EEi
FNDA:117,_ZN5mongo14DBClientCursor12dataReceivedERbRSs
FNDA:121,_ZN5mongo14DBClientCursorD0Ev
FNDA:28,_GLOBAL__sub_I_dbclientcursor.cpp
FNDA:121,_ZN5mongo14DBClientCursor13nextBatchSizeEv
FNDA:28,_Z41__static_initialization_and_destruction_0ii
FNDA:128,_ZN5mongo14DBClientCursor4moreEv
FNDA:164,_ZN5mongo14DBClientCursor15_finishConsInitEv
FNDA:0,_ZN5mongo14DBClientCursor8initLazyEb
FNDA:113,_ZN5mongo14DBClientCursor4nextEv
FNDA:18,_ZN5mongo14DBClientCursor9peekErrorEPNS_7BSONObjE
FNDA:121,_ZN5mongo14DBClientCursor13_assembleInitERNS_7MessageE
FNDA:121,_ZN5mongo14DBClientCursor4initEv
FNDA:1,_ZN5mongo14DBClientCursor9peekFirstEv
FNDA:0,_ZN5mongo14DBClientCursor14initLazyFinishERb
FNDA:0,_ZN5mongo14DBClientCursor6attachEPNS_17AScopedConnectionE
FNDA:0,_ZN5mongo14DBClientCursor18exhaustReceiveMoreEv
FNDA:0,_ZN5mongo14DBClientCursor11initCommandEv
FNF:20
FNH:14
DA:34,164
DA:35,328
DA:36,164
DA:38,121
DA:40,121
DA:41,12
DA:43,109
DA:46,0
DA:49,121
DA:50,121
DA:51,242
DA:54,0
DA:55,0
DA:56,0
DA:57,0
DA:58,0
DA:59,0
DA:61,121
DA:63,121
DA:64,121
DA:65,121
DA:66,121
DA:67,242
DA:69,3
DA:70,1
DA:72,351
DA:74,0
DA:75,0
DA:77,117
DA:78,121
DA:81,0
DA:82,0
DA:83,0
DA:84,0
DA:85,0
DA:86,0
DA:87,0
DA:88,0
DA:92,0
DA:93,0
DA:94,0
DA:95,0
DA:97,0
DA:99,0
DA:102,0
DA:104,0
DA:105,0
DA:106,0
DA:107,0
DA:109,0
DA:111,0
DA:115,0
DA:117,0
DA:118,0
DA:119,0
DA:120,0
DA:124,0
DA:127,0
DA:130,0
DA:131,0
DA:132,0
DA:134,0
DA:137,0
DA:138,0
DA:140,0
DA:141,0
DA:142,0
DA:144,0
DA:145,0
DA:146,0
DA:147,0
DA:148,0
DA:150,0
DA:151,0
DA:152,0
DA:154,0
DA:155,0
DA:156,0
DA:157,0
DA:160,0
DA:161,0
DA:162,0
DA:163,0
DA:164,0
DA:165,0
DA:166,0
DA:167,0
DA:169,0
DA:172,0
DA:173,0
DA:174,0
DA:175,0
DA:176,0
DA:177,0
DA:178,0
DA:180,0
DA:181,0
DA:182,0
DA:184,117
DA:186,234
DA:187,117
DA:189,117
DA:190,1
DA:193,117
DA:195,0
DA:196,0
DA:197,0
DA:198,0
DA:201,117
DA:204,117
DA:207,117
DA:208,117
DA:209,117
DA:211,117
DA:216,117
DA:219,128
DA:222,256
DA:225,128
DA:228,128
DA:231,15
DA:234,0
DA:235,0
DA:238,113
DA:240,226
DA:241,0
DA:242,0
DA:243,0
DA:246,113
DA:248,113
DA:249,113
DA:250,113
DA:252,113
DA:255,1
DA:256,1
DA:268,1
DA:269,1
DA:270,3
DA:273,1
DA:274,1
DA:275,1
DA:277,1
DA:279,1
DA:281,1
DA:283,2
DA:284,1
DA:287,18
DA:288,18
DA:291,0
DA:293,0
DA:294,0
DA:296,0
DA:297,0
DA:300,0
DA:301,0
DA:302,0
DA:303,0
DA:305,0
DA:306,0
DA:307,0
DA:308,0
DA:309,0
DA:311,0
DA:314,0
DA:317,0
DA:318,0
DA:319,0
DA:320,0
DA:322,1597
DA:323,164
DA:326,164
DA:360,285
DA:363,84
LF:172
LH:66
end_of_record
TN:
SF:/home/tbrock/Code/mongo-cxx-driver/src/mongo/client/dbclientcursor.h
FN:37,_ZN5mongo23DBClientCursorInterfaceD0Ev
FN:37,_ZN5mongo14DBClientCursorC2EPNS_12DBClientBaseERKSsxii
FN:37,_ZN5mongo23DBClientCursorInterfaceD2Ev
FN:56,_ZNK5mongo14DBClientCursor15objsLeftInBatchEv
FN:57,_ZN5mongo27DBClientCursorBatchIterator8nextSafeEv
FN:104,_ZN5mongo14DBClientCursor7itcountEv
FN:210,_ZN5mongo14DBClientCursor5BatchC2Ev
FN:239,_ZN5mongo14DBClientCursor12dataReceivedEv
FNDA:0,_ZN5mongo23DBClientCursorInterfaceD0Ev
FNDA:117,_ZN5mongo14DBClientCursor12dataReceivedEv
FNDA:43,_ZN5mongo14DBClientCursorC2EPNS_12DBClientBaseERKSsxii
FNDA:105,_ZN5mongo14DBClientCursor8nextSafeEv
FNDA:0,_ZN5mongo23DBClientCursorInterfaceD2Ev
FNDA:0,_ZN5mongo27DBClientCursorBatchIterator8nextSafeEv
FNDA:121,_ZN5mongo14DBClientCursorC2EPNS_12DBClientBaseERKSsNS_7BSONObjEiiPKS5_ii
FNDA:0,_ZNK5mongo14DBClientCursor15objsLeftInBatchEv
FNDA:3,_ZN5mongo14DBClientCursor7itcountEv
FNDA:164,_ZN5mongo14DBClientCursor5BatchC2Ev
FNF:10
FNH:6
DA:37,207
DA:42,207
DA:56,0
DA:57,0
DA:76,105
DA:77,105
DA:78,105
DA:79,2
DA:80,1
DA:81,1
DA:83,104
DA:104,3
DA:105,3
DA:106,9
DA:107,6
DA:108,3
DA:110,3
DA:134,121
DA:140,121
DA:148,968
DA:149,121
DA:150,121
DA:152,43
DA:156,43
DA:164,387
DA:165,43
DA:166,43
DA:181,1
DA:203,164
DA:210,328
DA:239,351
DA:245,128
DA:259,0
DA:260,0
DA:261,0
DA:262,0
DA:263,0
DA:264,0
LF:38
LH:30
end_of_record
TN:
SF:/home/tbrock/Code/mongo-cxx-driver/src/mongo/client/dbclientinterface.h
FN:186,_ZN5mongo16ConnectionStringD2Ev
FN:196,_ZN5mongo16ConnectionStringC2ERKNS_11HostAndPortE
FN:274,_ZN5mongo16ConnectionString14ConnectionHookD2Ev
FN:274,_ZN5mongo16ConnectionString14ConnectionHookD0Ev
FN:282,_ZN5mongo16ConnectionString17setConnectionHookEPNS0_14ConnectionHookE
FN:287,_ZN5mongo16ConnectionString17getConnectionHookEv
FN:338,_ZN5mongo18DBClientConnection5queryERKSsNS_5QueryEiiPKNS_7BSONObjEii
FN:447,_ZN5mongo5Query13appendComplexIbEEvPKcRKT_
FN:447,_ZN5mongo5Query13appendComplexINS_7BSONObjEEEvPKcRKT_
FN:526,_ZN5mongo18DBClientConnectionC2EbPNS_18DBClientReplicaSetEd
FN:528,_ZN5mongo12DBClientBaseD2Ev
FN:528,_ZN5mongo18DBClientConnectionD2Ev
FN:528,_ZN5mongo11DBConnectorD0Ev
FN:528,_ZN5mongo12DBClientBaseD0Ev
FN:528,_ZN5mongo11DBConnectorD2Ev
FN:534,_ZN5mongo11DBConnector4recvERNS_7MessageE
FN:536,_ZN5mongo11DBConnector13checkResponseEPKciPbPSs
FN:565,_ZN5mongo17DBClientInterfaceD0Ev
FN:565,_ZN5mongo17DBClientInterfaceD2Ev
FN:565,_ZN5mongo20DBClientWithCommandsD2Ev
FN:588,_ZN5mongo20DBClientWithCommandsD0Ev
FN:756,_ZN5mongo20DBClientWithCommands14dropCollectionERKSsPNS_7BSONObjE
FN:816,_ZN5mongo20DBClientWithCommands8MROutputD2Ev
FN:817,_ZN5mongo20DBClientWithCommands8MROutputC2EPKc
FN:818,_ZN5mongo20DBClientWithCommands8MROutputC2ERKSs
FN:881,_ZN5mongo20DBClientWithCommands4evalINS_7BSONObjEEEbRKSsS4_T_
FN:960,_ZN5mongo20DBClientWithCommands12dropDatabaseERKSsPNS_7BSONObjE
FN:1165,_ZNK5mongo12DBClientBase23getSockCreationMicroSecEv
FN:1173,_ZN5mongo16ConnectExceptionD0Ev
FN:1173,_ZN5mongo16ConnectExceptionD2Ev
FN:1175,_ZN5mongo18DBClientConnection7connectERKSs
FN:1197,_ZN5mongo18DBClientConnectionD0Ev
FN:1273,_ZNK5mongo18DBClientConnection8isFailedEv
FN:1275,_ZN5mongo18DBClientConnection16isStillConnectedEv
FN:1277,_ZN5mongo18DBClientConnection4portEv
FN:1279,_ZNK5mongo18DBClientConnection8toStringEv
FN:1287,_ZNK5mongo18DBClientConnection16getServerAddressEv
FN:1290,_ZN5mongo18DBClientConnection8callReadERNS_7MessageES2_
FN:1295,_ZNK5mongo18DBClientConnection4typeEv
FN:1297,_ZNK5mongo18DBClientConnection12getSoTimeoutEv
FN:1299,_ZNK5mongo18DBClientConnection13lazySupportedEv
FNDA:0,_ZN5mongo11DBConnector4recvERNS_7MessageE
FNDA:0,_ZN5mongo16ConnectionString14ConnectionHookD2Ev
FNDA:0,_ZN5mongo17DBClientInterfaceD2Ev
FNDA:0,_ZNK5mongo18DBClientConnection13lazySupportedEv
FNDA:1,_ZN5mongo20DBClientWithCommands8MROutputC2EPKc
FNDA:34,_ZN5mongo18DBClientConnection7connectERKSs
FNDA:112,_ZNK5mongo18DBClientConnection12getSoTimeoutEv
FNDA:0,_ZN5mongo12DBClientBaseD2Ev
FNDA:0,_ZNK5mongo12DBClientBase23getSockCreationMicroSecEv
FNDA:0,_ZN5mongo17DBClientInterfaceD0Ev
FNDA:20,_ZN5mongo20DBClientWithCommands14dropCollectionERKSsPNS_7BSONObjE
FNDA:100218,_ZN5mongo18DBClientConnection4portEv
FNDA:0,_ZNK5mongo18DBClientConnection8toStringEv
FNDA:0,_ZN5mongo16ConnectExceptionD0Ev
FNDA:0,_ZN5mongo5Query13appendComplexIbEEvPKcRKT_
FNDA:278,_ZN5mongo18DBClientConnectionD2Ev
FNDA:202,_ZN5mongo16ConnectionStringD2Ev
FNDA:1,_ZN5mongo20DBClientWithCommands8MROutputC2ERKSs
FNDA:0,_ZN5mongo11DBConnectorD0Ev
FNDA:12,_ZN5mongo20DBClientWithCommands12dropDatabaseERKSsPNS_7BSONObjE
FNDA:80,_ZNK5mongo18DBClientConnection4typeEv
FNDA:34,_ZN5mongo18DBClientConnection16isStillConnectedEv
FNDA:0,_ZN5mongo16ConnectionStringC2ENS0_14ConnectionTypeERKSsS3_
FNDA:0,_ZN5mongo11DBConnector13checkResponseEPKciPbPSs
FNDA:0,_ZN5mongo16ConnectionString14ConnectionHookD0Ev
FNDA:201,_ZN5mongo16ConnectionStringC2ERKNS_11HostAndPortE
FNDA:121,_ZN5mongo18DBClientConnection5queryERKSsNS_5QueryEiiPKNS_7BSONObjEii
FNDA:37,_ZN5mongo16ConnectionString17setConnectionHookEPNS0_14ConnectionHookE
FNDA:3,_ZN5mongo20DBClientWithCommands4evalINS_7BSONObjEEEbRKSsS4_T_
FNDA:0,_ZN5mongo11DBConnectorD2Ev
FNDA:0,_ZN5mongo16ConnectExceptionD2Ev
FNDA:28,_ZN5mongo5Query13appendComplexINS_7BSONObjEEEvPKcRKT_
FNDA:302,_ZN5mongo20DBClientWithCommandsD2Ev
FNDA:278,_ZN5mongo18DBClientConnectionC2EbPNS_18DBClientReplicaSetEd
FNDA:0,_ZN5mongo18DBClientConnection7connectEPKcRSs
FNDA:0,_ZN5mongo12DBClientBaseD0Ev
FNDA:9,_ZN5mongo16ConnectionString17getConnectionHookEv
FNDA:0,_ZN5mongo18DBClientConnection8callReadERNS_7MessageES2_
FNDA:79,_ZNK5mongo18DBClientConnection8isFailedEv
FNDA:0,_ZN5mongo20DBClientWithCommandsD0Ev
FNDA:124,_ZNK5mongo18DBClientConnection16getServerAddressEv
FNDA:28,_ZN5mongo20DBClientWithCommands8MROutputD2Ev
FNDA:58,_ZN5mongo18DBClientConnectionD0Ev
FNF:43
FNH:23
DA:186,606
DA:190,3
DA:191,1
DA:196,603
DA:197,201
DA:198,201
DA:199,201
DA:200,201
DA:202,0
DA:203,0
DA:204,0
DA:205,0
DA:207,0
DA:209,0
DA:212,0
DA:213,0
DA:216,0
DA:219,0
DA:222,0
DA:223,0
DA:242,46
DA:244,715
DA:272,28
DA:274,28
DA:282,37
DA:284,37
DA:285,37
DA:287,9
DA:289,18
DA:338,1081
DA:345,61
DA:346,120
DA:447,28
DA:448,28
DA:449,28
DA:450,56
DA:451,84
DA:452,56
DA:453,28
DA:526,302
DA:528,302
DA:534,0
DA:536,0
DA:537,0
DA:538,0
DA:545,302
DA:565,302
DA:588,1510
DA:596,1510
DA:756,20
DA:757,20
DA:758,20
DA:759,20
DA:762,20
DA:763,20
DA:766,140
DA:767,20
DA:768,40
DA:816,61
DA:817,4
DA:818,4
DA:819,29
DA:881,3
DA:884,6
DA:885,9
DA:886,3
DA:887,5
DA:960,12
DA:961,24
DA:962,12
DA:963,12
DA:978,0
DA:988,0
DA:1046,604
DA:1056,906
DA:1057,302
DA:1058,302
DA:1059,302
DA:1165,0
DA:1166,0
DA:1173,0
DA:1175,0
DA:1192,278
DA:1193,2502
DA:1194,278
DA:1195,278
DA:1197,2282
DA:1198,278
DA:1199,336
DA:1212,0
DA:1214,0
DA:1215,0
DA:1237,34
DA:1239,68
DA:1240,0
DA:1241,34
DA:1252,121
DA:1255,360
DA:1273,79
DA:1275,102
DA:1277,300654
DA:1279,0
DA:1280,0
DA:1281,0
DA:1282,0
DA:1283,0
DA:1284,0
DA:1287,124
DA:1290,0
DA:1295,80
DA:1297,112
DA:1299,0
DA:1318,0
DA:1338,100339
LF:114
LH:79
end_of_record
TN:
SF:/home/tbrock/Code/mongo-cxx-driver/src/mongo/client/dbclientmockcursor.h
FN:28,_ZN5mongo18DBClientMockCursorD2Ev
FN:28,_ZN5mongo18DBClientMockCursorD0Ev
FN:30,_ZN5mongo18DBClientMockCursor4moreEv
FN:31,_ZN5mongo18DBClientMockCursor4nextEv
FNDA:43,_ZN5mongo18DBClientMockCursorD0Ev
FNDA:38,_ZN5mongo18DBClientMockCursor4nextEv
FNDA:0,_ZN5mongo18DBClientMockCursorD2Ev
FNDA:32,_ZN5mongo18DBClientMockCursor4moreEv
FNF:4
FNH:3
DA:27,86
DA:28,86
DA:30,64
DA:31,76
LF:4
LH:4
end_of_record
TN:
SF:/home/tbrock/Code/mongo-cxx-driver/src/mongo/client/gridfs.cpp
FN:47,_ZN5mongo11GridFSChunkC2ENS_7BSONObjE
FN:51,_ZN5mongo11GridFSChunkC2ENS_7BSONObjEiPKci
FN:60,_ZN5mongo6GridFSC2ERNS_12DBClientBaseERKSsS4_
FN:69,_ZN5mongo6GridFSD2Ev
FN:73,_ZN5mongo6GridFS12setChunkSizeEj
FN:78,_ZNK5mongo6GridFS12getChunkSizeEv
FN:82,_ZN5mongo6GridFS9storeFileEPKcmRKSsS4_
FN:103,_ZN5mongo6GridFS9storeFileERKSsS2_S2_
FN:144,_ZN5mongo6GridFS10insertFileERKSsRKNS_3OIDEyS2_
FN:180,_ZN5mongo6GridFS10removeFileERKSs
FN:190,_ZN5mongo8GridFileC2EPKNS_6GridFSENS_7BSONObjE
FN:195,_ZNK5mongo6GridFS8findFileERKSs
FN:199,_ZNK5mongo6GridFS8findFileENS_7BSONObjE
FN:204,_ZNK5mongo6GridFS4listEv
FN:208,_ZNK5mongo6GridFS4listENS_7BSONObjE
FN:212,_ZNK5mongo8GridFile11getMetadataEv
FN:221,_ZNK5mongo8GridFile8getChunkEi
FN:232,_ZNK5mongo8GridFile5writeERSo
FN:248,_ZNK5mongo8GridFile5writeERKSs
FN:259,_ZNK5mongo8GridFile7_existsEv
FN:263,_Z41__static_initialization_and_destruction_0ii
FN:263,_GLOBAL__sub_I_gridfs.cpp
FNDA:1,_ZNK5mongo8GridFile5writeERKSs
FNDA:1,_ZN5mongo6GridFS9storeFileERKSsS2_S2_
FNDA:9,_ZNK5mongo6GridFS8findFileERKSs
FNDA:1,_ZN5mongo6GridFS10removeFileERKSs
FNDA:12,_ZN5mongo6GridFSD2Ev
FNDA:2,_ZN5mongo6GridFS12setChunkSizeEj
FNDA:2,_ZNK5mongo6GridFS12getChunkSizeEv
FNDA:28,_Z41__static_initialization_and_destruction_0ii
FNDA:2,_ZNK5mongo8GridFile5writeERSo
FNDA:1,_ZNK5mongo6GridFS4listEv
FNDA:3,_ZNK5mongo8GridFile8getChunkEi
FNDA:9,_ZN5mongo8GridFileC2EPKNS_6GridFSENS_7BSONObjE
FNDA:12,_ZN5mongo6GridFSC2ERNS_12DBClientBaseERKSsS4_
FNDA:13,_ZN5mongo6GridFS10insertFileERKSsRKNS_3OIDEyS2_
FNDA:3,_ZN5mongo11GridFSChunkC2ENS_7BSONObjE
FNDA:1,_ZNK5mongo8GridFile11getMetadataEv
FNDA:2,_ZNK5mongo6GridFS4listENS_7BSONObjE
FNDA:28,_ZN5mongo11GridFSChunkC2ENS_7BSONObjEiPKci
FNDA:28,_GLOBAL__sub_I_gridfs.cpp
FNDA:9,_ZNK5mongo6GridFS8findFileENS_7BSONObjE
FNDA:12,_ZN5mongo6GridFS9storeFileEPKcmRKSsS4_
FNDA:5,_ZNK5mongo8GridFile7_existsEv
FNF:22
FNH:22
DA:47,3
DA:48,3
DA:49,3
DA:51,28
DA:52,28
DA:53,28
DA:54,28
DA:55,28
DA:56,56
DA:57,28
DA:60,24
DA:61,48
DA:62,48
DA:63,12
DA:65,72
DA:66,96
DA:67,12
DA:69,48
DA:71,12
DA:73,2
DA:74,2
DA:75,2
DA:76,2
DA:78,2
DA:79,2
DA:82,12
DA:83,12
DA:86,12
DA:87,36
DA:89,12
DA:90,51
DA:91,27
DA:92,54
DA:93,108
DA:95,27
DA:96,27
DA:99,24
DA:103,1
DA:105,1
DA:106,0
DA:108,1
DA:109,1
DA:112,1
DA:113,3
DA:115,1
DA:116,1
DA:117,3
DA:119,1
DA:122,2
DA:123,1
DA:124,1
DA:125,1
DA:127,1
DA:130,2
DA:131,4
DA:133,1
DA:134,1
DA:135,1
DA:138,1
DA:139,1
DA:141,2
DA:144,13
DA:146,13
DA:147,39
DA:150,26
DA:153,117
DA:154,0
DA:156,26
DA:157,39
DA:158,52
DA:159,52
DA:160,26
DA:161,39
DA:164,13
DA:165,39
DA:168,0
DA:171,13
DA:172,3
DA:174,13
DA:175,52
DA:177,13
DA:180,1
DA:181,8
DA:182,3
DA:183,1
DA:184,1
DA:185,9
DA:186,9
DA:188,1
DA:190,9
DA:191,9
DA:192,9
DA:193,9
DA:195,9
DA:196,45
DA:199,9
DA:200,90
DA:201,54
DA:204,1
DA:205,7
DA:208,2
DA:209,12
DA:212,1
DA:213,2
DA:214,1
DA:218,0
DA:221,3
DA:222,3
DA:223,3
DA:224,6
DA:225,3
DA:227,18
DA:228,3
DA:229,9
DA:232,2
DA:233,2
DA:235,2
DA:237,4
DA:238,2
DA:241,2
DA:242,2
DA:245,2
DA:248,1
DA:249,1
DA:250,0
DA:253,2
DA:254,2
DA:255,1
DA:259,5
DA:260,5
DA:261,5
DA:263,84
LF:132
LH:127
end_of_record
TN:
SF:/home/tbrock/Code/mongo-cxx-driver/src/mongo/client/gridfs.h
FN:37,_ZNK5mongo11GridFSChunk3lenEv
FN:43,_ZNK5mongo11GridFSChunk4dataERi
FN:150,_ZNK5mongo8GridFile11getFilenameEv
FN:154,_ZNK5mongo8GridFile12getChunkSizeEv
FN:158,_ZNK5mongo8GridFile16getContentLengthEv
FN:162,_ZNK5mongo8GridFile14getContentTypeEv
FN:166,_ZNK5mongo8GridFile13getUploadDateEv
FN:170,_ZNK5mongo8GridFile6getMD5Ev
FN:180,_ZNK5mongo8GridFile12getNumChunksEv
FNDA:1,_ZNK5mongo11GridFSChunk3lenEv
FNDA:1,_ZNK5mongo8GridFile11getFilenameEv
FNDA:4,_ZNK5mongo8GridFile12getNumChunksEv
FNDA:1,_ZNK5mongo8GridFile6getMD5Ev
FNDA:8,_ZNK5mongo8GridFile16getContentLengthEv
FNDA:3,_ZNK5mongo11GridFSChunk4dataERi
FNDA:5,_ZNK5mongo8GridFile12getChunkSizeEv
FNDA:1,_ZNK5mongo8GridFile13getUploadDateEv
FNDA:1,_ZNK5mongo8GridFile14getContentTypeEv
FNF:9
FNH:9
DA:32,31
DA:37,1
DA:39,2
DA:40,1
DA:43,3
DA:44,6
DA:140,11
DA:147,18
DA:150,1
DA:151,2
DA:154,5
DA:155,15
DA:158,8
DA:159,24
DA:162,1
DA:163,3
DA:166,1
DA:167,3
DA:170,1
DA:171,2
DA:180,4
DA:181,4
LF:22
LH:22
end_of_record
TN:
SF:/home/tbrock/Code/mongo-cxx-driver/src/mongo/client/init.cpp
FN:30,_ZN5mongo6client12_GLOBAL__N_118callShutdownAtExitEv
FN:36,_ZN5mongo6client10initializeEb
FN:55,_ZN5mongo6client8shutdownEi
FN:61,_GLOBAL__sub_I_init.cpp
FN:61,_Z41__static_initialization_and_destruction_0ii
FNDA:28,_ZN5mongo6client12_GLOBAL__N_118callShutdownAtExitEv
FNDA:28,_GLOBAL__sub_I_init.cpp
FNDA:28,_Z41__static_initialization_and_destruction_0ii
FNDA:28,_ZN5mongo6client10initializeEb
FNDA:28,_ZN5mongo6client8shutdownEi
FNF:5
FNH:5
DA:30,28
DA:32,56
DA:33,28
DA:36,28
DA:38,28
DA:39,28
DA:42,0
DA:46,28
DA:47,28
DA:50,28
DA:55,28
DA:56,28
DA:57,28
DA:61,84
LF:14
LH:13
end_of_record
TN:
SF:/home/tbrock/Code/mongo-cxx-driver/src/mongo/client/replica_set_monitor.cpp
FN:84,_Z41__static_initialization_and_destruction_0ii
FN:91,_ZN5mongo12_GLOBAL__N_124ReplicaSetMonitorWatcherC2Ev
FN:97,_ZN5mongo12_GLOBAL__N_124ReplicaSetMonitorWatcherD0Ev
FN:97,_ZN5mongo12_GLOBAL__N_124ReplicaSetMonitorWatcherD2Ev
FN:108,_ZNK5mongo12_GLOBAL__N_124ReplicaSetMonitorWatcher4nameEv
FN:110,_ZN5mongo12_GLOBAL__N_124ReplicaSetMonitorWatcher6safeGoEv
FN:124,_ZN5mongo12_GLOBAL__N_124ReplicaSetMonitorWatcher4stopEv
FN:131,_ZN5mongo12_GLOBAL__N_124ReplicaSetMonitorWatcher3runEv
FN:170,_ZN5mongo12_GLOBAL__N_124ReplicaSetMonitorWatcher12checkAllSetsEv.isra.345
FN:210,_ZN5mongo12_GLOBAL__N_18isMasterERKNS_17ReplicaSetMonitor8SetState4NodeE
FN:211,_ZN5mongo12_GLOBAL__N_116compareLatenciesEPKNS_17ReplicaSetMonitor8SetState4NodeES5_
FN:216,_ZN5mongo12_GLOBAL__N_110hostsEqualERKNS_17ReplicaSetMonitor8SetState4NodeERKNS_11HostAndPortE
FN:234,_ZN5mongo17ReplicaSetMonitor9Refresher33receivedIsMasterBeforeFoundMasterERKNS0_13IsMasterReplyE
FN:234,_ZN5mongo17ReplicaSetMonitor9Refresher12startNewScanEPKNS0_8SetStateE
FN:241,_ZN5mongo17ReplicaSetMonitor9Refresher26receivedIsMasterFromMasterERKNS0_13IsMasterReplyE
FN:254,_ZN5mongo17ReplicaSetMonitorC2ENS_10StringDataERKSt3setINS_11HostAndPortESt4lessIS3_ESaIS3_EE
FN:266,_ZN5mongo17ReplicaSetMonitor16getHostOrRefreshERKNS_21ReadPreferenceSettingE
FN:288,_ZN5mongo17ReplicaSetMonitor18getMasterOrUassertEv
FN:296,_ZN5mongo17ReplicaSetMonitor22startOrContinueRefreshEv
FN:304,_ZN5mongo17ReplicaSetMonitor10failedHostERKNS_11HostAndPortE
FN:312,_ZNK5mongo17ReplicaSetMonitor9isPrimaryERKNS_11HostAndPortE
FN:318,_ZNK5mongo17ReplicaSetMonitor8isHostUpERKNS_11HostAndPortE
FN:324,_ZNK5mongo17ReplicaSetMonitor25getConsecutiveFailedScansEv
FN:329,_ZNK5mongo17ReplicaSetMonitor7getNameEv
FN:334,_ZNK5mongo17ReplicaSetMonitor16getServerAddressEv
FN:339,_ZNK5mongo17ReplicaSetMonitor8containsERKNS_11HostAndPortE
FN:344,_ZN5mongo17ReplicaSetMonitor14createIfNeededERKSsRKSt3setINS_11HostAndPortESt4lessIS4_ESaIS4_EE
FN:354,_ZN5mongo17ReplicaSetMonitor3getERKSsb
FN:375,_ZN5mongo17ReplicaSetMonitor17getAllTrackedSetsEv
FN:386,_ZN5mongo17ReplicaSetMonitor6removeERKSsb
FN:412,_ZN5mongo17ReplicaSetMonitor19setConfigChangeHookEN5boost8functionIFvRKSsS4_EEE
FN:418,_ZNK5mongo17ReplicaSetMonitor10appendInfoERNS_14BSONObjBuilderE
FN:443,_ZN5mongo17ReplicaSetMonitor7cleanupEv
FN:453,_ZN5mongo17ReplicaSetMonitor9RefresherC2ERKN5boost10shared_ptrINS0_8SetStateEEE
FN:466,_ZN5mongo17ReplicaSetMonitor9Refresher11getNextStepEv
FN:525,_ZN5mongo17ReplicaSetMonitor9Refresher16receivedIsMasterERKNS_11HostAndPortElRKNS_7BSONObjE
FN:568,_ZN5mongo17ReplicaSetMonitor9Refresher10failedHostERKNS_11HostAndPortE
FN:719,_ZN5mongo17ReplicaSetMonitor9Refresher20_refreshUntilMatchesEPKNS_21ReadPreferenceSettingE
FN:773,_ZN5mongo17ReplicaSetMonitor13IsMasterReply5parseERKNS_7BSONObjE
FN:809,_ZNK5mongo17ReplicaSetMonitor8SetState4Node7matchesERKNS_14ReadPreferenceE
FN:825,_ZNK5mongo17ReplicaSetMonitor8SetState4Node7matchesERKNS_7BSONObjE
FN:834,_ZN5mongo17ReplicaSetMonitor8SetState4Node6updateERKNS0_13IsMasterReplyE
FN:862,_ZN5mongo17ReplicaSetMonitor8SetStateC2ENS_10StringDataERKSt3setINS_11HostAndPortESt4lessIS4_ESaIS4_EE
FN:888,_ZNK5mongo17ReplicaSetMonitor8SetState15getMatchingHostERKNS_21ReadPreferenceSettingE
FN:970,_ZN5mongo17ReplicaSetMonitor8SetState8findNodeERKNS_11HostAndPortE
FN:978,_ZN5mongo17ReplicaSetMonitor8SetState16findOrCreateNodeERKNS_11HostAndPortE
FN:990,_ZN5mongo17ReplicaSetMonitor8SetState19updateNodeIfInNodesERKNS0_13IsMasterReplyE
FN:1001,_ZNK5mongo17ReplicaSetMonitor8SetState16getServerAddressEv
FN:1016,_ZNK5mongo17ReplicaSetMonitor8SetState15checkInvariantsEv
FN:1066,_ZN5mongo17ReplicaSetMonitor9ScanState20enqueAllUntriedHostsISt3setINS_11HostAndPortESt4lessIS4_ESaIS4_EEEEvRKT_RNS_12PseudoRandomE
FN:1078,_GLOBAL__sub_I_replica_set_monitor.cpp
FNDA:271,_ZN5mongo17ReplicaSetMonitor8SetState8findNodeERKNS_11HostAndPortE
FNDA:5,_ZNK5mongo17ReplicaSetMonitor10appendInfoERNS_14BSONObjBuilderE
FNDA:46,_ZN5mongo17ReplicaSetMonitor9Refresher20_refreshUntilMatchesEPKNS_21ReadPreferenceSettingE
FNDA:28,_ZN5mongo12_GLOBAL__N_124ReplicaSetMonitorWatcher6safeGoEv
FNDA:4,_ZN5mongo17ReplicaSetMonitor10failedHostERKNS_11HostAndPortE
FNDA:141,_ZN5mongo17ReplicaSetMonitor8SetStateC2ENS_10StringDataERKSt3setINS_11HostAndPortESt4lessIS4_ESaIS4_EE
FNDA:0,_ZN5mongo12_GLOBAL__N_124ReplicaSetMonitorWatcherD0Ev
FNDA:0,_ZN5mongo17ReplicaSetMonitor6removeERKSsb
FNDA:0,_ZN5mongo12_GLOBAL__N_124ReplicaSetMonitorWatcher12checkAllSetsEv.isra.345
FNDA:25,_ZN5mongo17ReplicaSetMonitor9Refresher33receivedIsMasterBeforeFoundMasterERKNS0_13IsMasterReplyE
FNDA:36,_ZN5mongo17ReplicaSetMonitor16getHostOrRefreshERKNS_21ReadPreferenceSettingE
FNDA:11,_ZN5mongo17ReplicaSetMonitor18getMasterOrUassertEv
FNDA:28,_ZN5mongo17ReplicaSetMonitor14createIfNeededERKSsRKSt3setINS_11HostAndPortESt4lessIS4_ESaIS4_EE
FNDA:80,_ZN5mongo17ReplicaSetMonitor7cleanupEv
FNDA:0,_ZNK5mongo17ReplicaSetMonitor16getServerAddressEv
FNDA:0,_ZNK5mongo17ReplicaSetMonitor8containsERKNS_11HostAndPortE
FNDA:1,_ZN5mongo12_GLOBAL__N_124ReplicaSetMonitorWatcher3runEv
FNDA:37,_ZN5mongo17ReplicaSetMonitor9ScanState20enqueAllUntriedHostsISt3setINS_11HostAndPortESt4lessIS4_ESaIS4_EEEEvRKT_RNS_12PseudoRandomE
FNDA:106,_ZN5mongo17ReplicaSetMonitor8SetState16findOrCreateNodeERKNS_11HostAndPortE
FNDA:222,_ZN5mongo17ReplicaSetMonitor9Refresher11getNextStepEv
FNDA:19,_ZN5mongo17ReplicaSetMonitor9Refresher10failedHostERKNS_11HostAndPortE
FNDA:0,_ZNK5mongo17ReplicaSetMonitor25getConsecutiveFailedScansEv
FNDA:156,_ZN5mongo17ReplicaSetMonitor13IsMasterReply5parseERKNS_7BSONObjE
FNDA:46,_ZNK5mongo17ReplicaSetMonitor8SetState16getServerAddressEv
FNDA:2,_ZNK5mongo17ReplicaSetMonitor8isHostUpERKNS_11HostAndPortE
FNDA:266,_ZNK5mongo17ReplicaSetMonitor8SetState4Node7matchesERKNS_7BSONObjE
FNDA:0,_ZN5mongo17ReplicaSetMonitor17getAllTrackedSetsEv
FNDA:28,_ZN5mongo12_GLOBAL__N_124ReplicaSetMonitorWatcherC2Ev
FNDA:108,_ZN5mongo12_GLOBAL__N_124ReplicaSetMonitorWatcher4stopEv
FNDA:28,_ZN5mongo17ReplicaSetMonitorC2ENS_10StringDataERKSt3setINS_11HostAndPortESt4lessIS3_ESaIS3_EE
FNDA:46,_ZN5mongo17ReplicaSetMonitor9Refresher26receivedIsMasterFromMasterERKNS0_13IsMasterReplyE
FNDA:141,_ZN5mongo17ReplicaSetMonitor8SetState19updateNodeIfInNodesERKNS0_13IsMasterReplyE
FNDA:55,_ZN5mongo17ReplicaSetMonitor9Refresher12startNewScanEPKNS0_8SetStateE
FNDA:29,_ZN5mongo12_GLOBAL__N_116compareLatenciesEPKNS_17ReplicaSetMonitor8SetState4NodeES5_
FNDA:145,_ZN5mongo17ReplicaSetMonitor8SetState4Node6updateERKNS0_13IsMasterReplyE
FNDA:20,_ZNK5mongo17ReplicaSetMonitor9isPrimaryERKNS_11HostAndPortE
FNDA:46,_ZN5mongo17ReplicaSetMonitor22startOrContinueRefreshEv
FNDA:7,_ZNK5mongo17ReplicaSetMonitor7getNameEv
FNDA:252,_ZN5mongo12_GLOBAL__N_18isMasterERKNS_17ReplicaSetMonitor8SetState4NodeE
FNDA:0,_ZN5mongo17ReplicaSetMonitor19setConfigChangeHookEN5boost8functionIFvRKSsS4_EEE
FNDA:1,_ZNK5mongo12_GLOBAL__N_124ReplicaSetMonitorWatcher4nameEv
FNDA:376,_ZNK5mongo17ReplicaSetMonitor8SetState15getMatchingHostERKNS_21ReadPreferenceSettingE
FNDA:56,_ZN5mongo17ReplicaSetMonitor9RefresherC2ERKN5boost10shared_ptrINS0_8SetStateEEE
FNDA:600,_ZNK5mongo17ReplicaSetMonitor8SetState4Node7matchesERKNS_14ReadPreferenceE
FNDA:28,_GLOBAL__sub_I_replica_set_monitor.cpp
FNDA:28,_Z41__static_initialization_and_destruction_0ii
FNDA:79,_ZN5mongo12_GLOBAL__N_110hostsEqualERKNS_17ReplicaSetMonitor8SetState4NodeERKNS_11HostAndPortE
FNDA:28,_ZN5mongo12_GLOBAL__N_124ReplicaSetMonitorWatcherD2Ev
FNDA:150,_ZN5mongo17ReplicaSetMonitor9Refresher16receivedIsMasterERKNS_11HostAndPortElRKNS_7BSONObjE
FNDA:0,_ZNK5mongo17ReplicaSetMonitor8SetState15checkInvariantsEv
FNDA:52,_ZN5mongo17ReplicaSetMonitor3getERKSsb
FNF:51
FNH:42
DA:84,28
DA:85,28
DA:86,28
DA:91,28
DA:94,28
DA:95,28
DA:97,56
DA:98,28
DA:103,28
DA:104,0
DA:106,28
DA:108,1
DA:110,28
DA:111,28
DA:112,28
DA:113,28
DA:115,2
DA:116,2
DA:118,2
DA:124,108
DA:125,108
DA:126,108
DA:127,108
DA:128,108
DA:131,1
DA:132,2
DA:138,1
DA:139,1
DA:140,1
DA:143,1
DA:145,1
DA:146,1
DA:152,0
DA:161,0
DA:162,0
DA:166,0
DA:168,1
DA:170,0
DA:178,0
DA:179,0
DA:180,0
DA:181,0
DA:183,0
DA:185,0
DA:186,0
DA:187,0
DA:191,0
DA:194,0
DA:202,28
DA:204,28
DA:210,252
DA:211,29
DA:213,29
DA:216,79
DA:224,842
DA:225,0
DA:234,23
DA:235,93
DA:241,23
DA:243,69
DA:254,28
DA:255,28
DA:256,28
DA:257,56
DA:258,103
DA:259,75
DA:260,47
DA:261,19
DA:262,47
DA:263,28
DA:264,28
DA:266,36
DA:268,108
DA:269,108
DA:270,36
DA:275,22
DA:277,22
DA:278,0
DA:285,0
DA:288,11
DA:289,22
DA:290,11
DA:291,29
DA:292,22
DA:293,9
DA:296,46
DA:297,92
DA:299,46
DA:301,46
DA:304,4
DA:305,12
DA:306,12
DA:307,4
DA:308,4
DA:310,4
DA:312,20
DA:313,60
DA:314,60
DA:315,40
DA:318,2
DA:319,6
DA:320,6
DA:321,4
DA:324,0
DA:325,0
DA:326,0
DA:329,7
DA:331,14
DA:334,0
DA:335,0
DA:336,0
DA:339,0
DA:340,0
DA:341,0
DA:344,28
DA:345,28
DA:347,28
DA:348,28
DA:349,56
DA:351,28
DA:352,28
DA:354,52
DA:355,52
DA:357,52
DA:358,52
DA:359,104
DA:361,0
DA:362,0
DA:363,0
DA:364,0
DA:365,0
DA:366,0
DA:367,0
DA:368,0
DA:369,0
DA:375,0
DA:378,0
DA:379,0
DA:381,0
DA:383,0
DA:386,0
DA:387,0
DA:388,0
DA:391,0
DA:392,0
DA:393,0
DA:395,0
DA:396,0
DA:397,0
DA:399,0
DA:402,0
DA:403,0
DA:409,0
DA:410,0
DA:412,0
DA:413,0
DA:414,0
DA:415,0
DA:418,5
DA:419,40
DA:422,10
DA:423,120
DA:424,75
DA:426,25
DA:427,75
DA:428,50
DA:429,50
DA:430,25
DA:431,50
DA:432,50
DA:434,50
DA:435,0
DA:438,50
DA:439,25
DA:440,5
DA:441,5
DA:443,80
DA:445,160
DA:446,80
DA:447,80
DA:449,160
DA:450,160
DA:451,80
DA:453,112
DA:455,56
DA:456,334
DA:457,168
DA:458,56
DA:460,55
DA:461,165
DA:462,165
DA:463,55
DA:466,222
DA:467,1595
DA:468,0
DA:471,774
DA:472,9
DA:475,684
DA:476,56
DA:477,42
DA:480,852
DA:482,88
DA:483,52
DA:495,74
DA:496,88
DA:497,27
DA:501,132
DA:502,114
DA:505,18
DA:506,30
DA:507,18
DA:508,6
DA:509,24
DA:513,132
DA:514,44
DA:518,507
DA:519,507
DA:520,507
DA:521,507
DA:525,150
DA:529,625
DA:531,150
DA:533,150
DA:534,0
DA:535,0
DA:538,725
DA:539,0
DA:540,0
DA:541,0
DA:542,0
DA:546,150
DA:547,46
DA:549,450
DA:551,375
DA:554,25
DA:555,75
DA:560,450
DA:563,450
DA:565,150
DA:568,19
DA:569,57
DA:573,76
DA:574,57
DA:576,57
DA:577,19
DA:578,19
DA:579,19
DA:581,384
DA:582,55
DA:592,55
DA:593,368
DA:595,148
DA:597,136
DA:598,68
DA:601,160
DA:607,220
DA:608,165
DA:609,165
DA:611,165
DA:613,110
DA:617,64
DA:620,55
DA:623,46
DA:624,46
DA:628,686
DA:629,937
DA:634,164
DA:635,52
DA:637,104
DA:639,23
DA:640,0
DA:643,69
DA:644,23
DA:646,184
DA:649,166
DA:650,240
DA:651,291
DA:656,248
DA:657,115
DA:659,92
DA:663,4
DA:664,10
DA:665,6
DA:669,184
DA:670,69
DA:671,69
DA:675,138
DA:677,23
DA:680,0
DA:681,0
DA:686,246
DA:687,248
DA:689,48
DA:691,92
DA:693,138
DA:694,138
DA:695,46
DA:697,25
DA:698,25
DA:702,126
DA:706,86
DA:708,7
DA:709,14
DA:710,28
DA:712,28
DA:714,2
DA:717,25
DA:719,46
DA:720,298
DA:722,181
DA:723,177
DA:724,59
DA:728,170
DA:729,170
DA:733,59
DA:737,0
DA:742,135
DA:745,135
DA:747,154
DA:748,116
DA:750,232
DA:751,116
DA:752,116
DA:754,38
DA:755,19
DA:757,135
DA:761,540
DA:762,0
DA:764,135
DA:765,19
DA:767,116
DA:773,156
DA:775,312
DA:777,312
DA:778,156
DA:779,1
DA:781,465
DA:782,310
DA:783,310
DA:786,463
DA:788,310
DA:789,429
DA:792,155
DA:793,1048
DA:794,1749
DA:796,466
DA:797,3
DA:800,310
DA:807,28
DA:809,600
DA:810,600
DA:813,341
DA:814,0
DA:817,341
DA:818,262
DA:822,253
DA:825,266
DA:826,327
DA:827,732
DA:828,183
DA:831,83
DA:834,145
DA:835,145
DA:836,145
DA:838,145
DA:842,145
DA:843,145
DA:846,145
DA:847,44
DA:849,145
DA:850,111
DA:851,48
DA:855,63
DA:858,145
DA:860,28
DA:862,141
DA:866,141
DA:868,705
DA:870,141
DA:872,141
DA:873,0
DA:880,464
DA:881,323
DA:882,364
DA:886,141
DA:888,376
DA:889,376
DA:893,135
DA:895,45
DA:898,99
DA:904,129
DA:905,43
DA:909,81
DA:914,2485
DA:915,484
DA:917,47
DA:923,509
DA:924,236
DA:928,3344
DA:929,1706
DA:930,228
DA:935,236
DA:936,176
DA:940,7
DA:941,33
DA:942,14
DA:943,14
DA:944,14
DA:946,3
DA:947,1
DA:952,7
DA:954,9
DA:958,16
DA:965,0
DA:970,271
DA:971,813
DA:972,1081
DA:975,262
DA:978,106
DA:982,318
DA:983,392
DA:984,36
DA:985,36
DA:987,106
DA:990,141
DA:991,141
DA:992,141
DA:993,5
DA:994,0
DA:995,141
DA:998,136
DA:1001,46
DA:1003,92
DA:1004,138
DA:1006,304
DA:1007,424
DA:1008,332
DA:1009,120
DA:1010,166
DA:1013,92
DA:1016,0
DA:1017,0
DA:1018,0
DA:1020,0
DA:1022,0
DA:1024,0
DA:1027,0
DA:1028,0
DA:1031,0
DA:1035,0
DA:1038,0
DA:1042,0
DA:1044,0
DA:1046,0
DA:1048,0
DA:1049,0
DA:1050,0
DA:1051,0
DA:1052,0
DA:1056,0
DA:1058,0
DA:1061,0
DA:1063,0
DA:1066,37
DA:1067,74
DA:1070,226
DA:1072,230
DA:1073,62
DA:1076,111
DA:1077,37
DA:1078,84
LF:471
LH:371
end_of_record
TN:
SF:/home/tbrock/Code/mongo-cxx-driver/src/mongo/client/replica_set_monitor.h
FN:217,_ZN5mongo17ReplicaSetMonitor9RefresherD2Ev
FN:235,_ZN5mongo17ReplicaSetMonitor9Refresher10refreshAllEv
FNDA:56,_ZN5mongo17ReplicaSetMonitor9RefresherD2Ev
FNDA:23,_ZN5mongo17ReplicaSetMonitor9Refresher10refreshAllEv
FNF:2
FNH:2
DA:37,29
DA:192,1
DA:217,168
DA:226,23
DA:235,46
DA:249,227
DA:258,222
LF:7
LH:7
end_of_record
TN:
SF:/home/tbrock/Code/mongo-cxx-driver/src/mongo/client/replica_set_monitor_internal.h
FN:38,_ZN5mongo17ReplicaSetMonitor13IsMasterReplyC2ERKS1_
FN:38,_ZN5mongo17ReplicaSetMonitor13IsMasterReplyD2Ev
FN:38,_ZN5mongo17ReplicaSetMonitor13IsMasterReplyaSERKS1_
FN:40,_ZN5mongo17ReplicaSetMonitor13IsMasterReplyC2ERKNS_11HostAndPortElRKNS_7BSONObjE
FN:67,_ZN5mongo17ReplicaSetMonitor8SetStateD2Ev
FN:72,_ZN5mongo17ReplicaSetMonitor8SetState4NodeaSERKS2_
FN:72,_ZN5mongo17ReplicaSetMonitor8SetState4NodeD2Ev
FN:72,_ZN5mongo17ReplicaSetMonitor8SetState4NodeC2ERKS2_
FN:173,_ZN5mongo17ReplicaSetMonitor9ScanStateD2Ev
FN:176,_ZN5mongo17ReplicaSetMonitor9ScanStateC2Ev
FNDA:156,_ZN5mongo17ReplicaSetMonitor13IsMasterReplyC2ERKNS_11HostAndPortElRKNS_7BSONObjE
FNDA:34,_ZN5mongo17ReplicaSetMonitor13IsMasterReplyC2ERKS1_
FNDA:55,_ZN5mongo17ReplicaSetMonitor9ScanStateC2Ev
FNDA:141,_ZN5mongo17ReplicaSetMonitor8SetStateD2Ev
FNDA:20,_ZN5mongo17ReplicaSetMonitor8SetState4NodeaSERKS2_
FNDA:190,_ZN5mongo17ReplicaSetMonitor13IsMasterReplyD2Ev
FNDA:1373,_ZN5mongo17ReplicaSetMonitor8SetState4NodeD2Ev
FNDA:55,_ZN5mongo17ReplicaSetMonitor9ScanStateD2Ev
FNDA:0,_ZN5mongo17ReplicaSetMonitor13IsMasterReplyaSERKS1_
FNDA:951,_ZN5mongo17ReplicaSetMonitor8SetState4NodeC2ERKS2_
FNF:10
FNH:9
DA:38,1466
DA:40,156
DA:43,1092
DA:44,156
DA:45,156
DA:67,705
DA:72,6081
DA:75,844
DA:76,422
DA:80,481
DA:81,481
DA:173,220
DA:176,330
LF:13
LH:13
end_of_record
TN:
SF:/home/tbrock/Code/mongo-cxx-driver/src/mongo/client/sasl_client_authenticate.cpp
FN:51,_ZN5mongo18saslExtractPayloadERKNS_7BSONObjEPSsPNS_8BSONTypeE
FN:81,_Z41__static_initialization_and_destruction_0ii
FN:81,_GLOBAL__sub_I_sasl_client_authenticate.cpp
FNDA:28,_Z41__static_initialization_and_destruction_0ii
FNDA:28,_GLOBAL__sub_I_sasl_client_authenticate.cpp
FNDA:1,_ZN5mongo18saslExtractPayloadERKNS_7BSONObjEPSsPNS_8BSONTypeE
FNF:3
FNH:3
DA:51,1
DA:54,1
DA:57,2
DA:58,2
DA:61,0
DA:62,0
DA:63,0
DA:64,0
DA:66,1
DA:68,3
DA:75,0
DA:76,0
DA:81,84
LF:13
LH:7
end_of_record
TN:
SF:/home/tbrock/Code/mongo-cxx-driver/src/mongo/client/sasl_client_authenticate_impl.cpp
FN:50,_ZN5mongo12_GLOBAL__N_121getSaslClientLogLevelERKNS_7BSONObjE
FN:71,_ZN5mongo12_GLOBAL__N_115extractPasswordERKNS_7BSONObjEbPSs
FN:106,_ZN5mongo12_GLOBAL__N_116configureSessionEPNS_17SaslClientSessionEPNS_20DBClientWithCommandsERKSsRKNS_7BSONObjE
FN:169,_ZN5mongo12_GLOBAL__N_126saslClientAuthenticateImplEPNS_20DBClientWithCommandsERKNS_7BSONObjE
FN:250,_ZN5mongo12_GLOBAL__N_156_mongoInitializerFunction_SaslClientAuthenticateFunctionEPNS_18InitializerContextE
FN:250,_Z41__static_initialization_and_destruction_0ii
FN:258,_ZN5mongo68_mongoInitializerFunctionAssure_client_sasl_client_authenticate_implEv
FN:258,_GLOBAL__sub_I_sasl_client_authenticate_impl.cpp
FNDA:28,_ZN5mongo12_GLOBAL__N_156_mongoInitializerFunction_SaslClientAuthenticateFunctionEPNS_18InitializerContextE
FNDA:1,_ZN5mongo12_GLOBAL__N_126saslClientAuthenticateImplEPNS_20DBClientWithCommandsERKNS_7BSONObjE
FNDA:1,_ZN5mongo12_GLOBAL__N_121getSaslClientLogLevelERKNS_7BSONObjE
FNDA:0,_ZN5mongo68_mongoInitializerFunctionAssure_client_sasl_client_authenticate_implEv
FNDA:28,_Z41__static_initialization_and_destruction_0ii
FNDA:1,_ZN5mongo12_GLOBAL__N_116configureSessionEPNS_17SaslClientSessionEPNS_20DBClientWithCommandsERKSsRKNS_7BSONObjE
FNDA:28,_GLOBAL__sub_I_sasl_client_authenticate_impl.cpp
FNDA:1,_ZN5mongo12_GLOBAL__N_115extractPasswordERKNS_7BSONObjEbPSs
FNF:8
FNH:7
DA:50,1
DA:51,1
DA:52,1
DA:53,1
DA:54,0
DA:55,1
DA:56,0
DA:57,1
DA:71,1
DA:78,2
DA:79,1
DA:82,1
DA:84,0
DA:87,0
DA:90,0
DA:106,1
DA:114,2
DA:115,1
DA:117,1
DA:120,4
DA:124,1
DA:126,1
DA:128,3
DA:130,3
DA:132,1
DA:134,1
DA:136,3
DA:139,1
DA:141,1
DA:144,2
DA:145,0
DA:147,3
DA:151,1
DA:154,2
DA:155,1
DA:156,1
DA:158,0
DA:162,1
DA:169,1
DA:171,1
DA:178,3
DA:179,1
DA:185,2
DA:186,1
DA:187,1
DA:190,7
DA:195,4
DA:196,1
DA:197,4
DA:198,1
DA:199,3
DA:203,2
DA:204,1
DA:207,1
DA:210,2
DA:211,1
DA:214,1
DA:216,2
DA:217,2
DA:221,3
DA:222,2
DA:223,1
DA:224,0
DA:230,2
DA:232,2
DA:234,1
DA:235,0
DA:236,0
DA:238,0
DA:241,2
DA:245,1
DA:246,0
DA:250,140
DA:251,28
DA:252,28
DA:258,84
LF:76
LH:64
end_of_record
TN:
SF:/home/tbrock/Code/mongo-cxx-driver/src/mongo/client/sasl_client_session.cpp
FN:33,_ZN5mongo12_GLOBAL__N_114saslMutexAllocEv
FN:37,_ZN5mongo12_GLOBAL__N_113saslMutexLockEPv
FN:42,_ZN5mongo12_GLOBAL__N_115saslMutexUnlockEPv
FN:47,_ZN5mongo12_GLOBAL__N_113saslMutexFreeEPv
FN:55,_Z41__static_initialization_and_destruction_0ii
FN:55,_ZN5mongo12_GLOBAL__N_155_mongoInitializerFunction_CyrusSaslAllocatorsAndMutexesEPNS_18InitializerContextE
FN:63,_ZN5mongo12_GLOBAL__N_120saslClientLogSwallowEPviPKc
FN:78,_ZN5mongo12_GLOBAL__N_143_mongoInitializerFunction_SaslClientContextEPNS_18InitializerContextE
FN:107,_ZN5mongo12_GLOBAL__N_119saslClientGetSimpleEPviPPKcPj
FN:138,_ZN5mongo12_GLOBAL__N_121saslClientGetPasswordEP9sasl_connPviPP11sasl_secret
FN:159,_ZN5mongo17SaslClientSessionC2Ev
FN:173,_ZN5mongo17SaslClientSessionD2Ev
FN:177,_ZN5mongo17SaslClientSession12setParameterENS0_9ParameterERKNS_10StringDataE
FN:201,_ZN5mongo17SaslClientSession12hasParameterENS0_9ParameterE
FN:207,_ZN5mongo17SaslClientSession12getParameterENS0_9ParameterE
FN:222,_ZN5mongo17SaslClientSession19getPasswordAsSecretEv
FN:228,_ZN5mongo17SaslClientSession10initializeEv
FN:248,_ZN5mongo17SaslClientSession4stepERKNS_10StringDataEPSs
FN:289,_ZN5mongo58_mongoInitializerFunctionAssure_client_sasl_client_sessionEv
FN:289,_GLOBAL__sub_I_sasl_client_session.cpp
FNDA:1,_ZN5mongo12_GLOBAL__N_121saslClientGetPasswordEP9sasl_connPviPP11sasl_secret
FNDA:28,_ZN5mongo12_GLOBAL__N_155_mongoInitializerFunction_CyrusSaslAllocatorsAndMutexesEPNS_18InitializerContextE
FNDA:1,_ZN5mongo12_GLOBAL__N_113saslMutexLockEPv
FNDA:1,_ZN5mongo12_GLOBAL__N_115saslMutexUnlockEPv
FNDA:1,_ZN5mongo17SaslClientSession4stepERKNS_10StringDataEPSs
FNDA:5,_ZN5mongo17SaslClientSession12setParameterENS0_9ParameterERKNS_10StringDataE
FNDA:56,_ZN5mongo12_GLOBAL__N_114saslMutexAllocEv
FNDA:0,_ZN5mongo12_GLOBAL__N_120saslClientLogSwallowEPviPKc
FNDA:28,_ZN5mongo12_GLOBAL__N_143_mongoInitializerFunction_SaslClientContextEPNS_18InitializerContextE
FNDA:1,_ZN5mongo17SaslClientSessionD2Ev
FNDA:1,_ZN5mongo17SaslClientSession10initializeEv
FNDA:4,_ZN5mongo17SaslClientSession12getParameterENS0_9ParameterE
FNDA:0,_ZN5mongo12_GLOBAL__N_113saslMutexFreeEPv
FNDA:6,_ZN5mongo17SaslClientSession12hasParameterENS0_9ParameterE
FNDA:1,_ZN5mongo17SaslClientSessionC2Ev
FNDA:28,_GLOBAL__sub_I_sasl_client_session.cpp
FNDA:1,_ZN5mongo17SaslClientSession19getPasswordAsSecretEv
FNDA:28,_Z41__static_initialization_and_destruction_0ii
FNDA:2,_ZN5mongo12_GLOBAL__N_119saslClientGetSimpleEPviPPKcPj
FNDA:0,_ZN5mongo58_mongoInitializerFunctionAssure_client_sasl_client_sessionEv
FNF:20
FNH:17
DA:33,56
DA:34,56
DA:37,1
DA:38,1
DA:39,1
DA:42,1
DA:43,1
DA:44,1
DA:47,0
DA:48,0
DA:49,0
DA:55,140
DA:59,28
DA:60,28
DA:63,0
DA:64,0
DA:78,140
DA:89,28
DA:90,28
DA:93,0
DA:94,0
DA:95,0
DA:107,2
DA:111,2
DA:112,2
DA:116,2
DA:119,2
DA:125,2
DA:127,2
DA:128,2
DA:129,2
DA:130,0
DA:138,1
DA:143,1
DA:144,1
DA:147,1
DA:148,1
DA:149,0
DA:153,1
DA:154,1
DA:159,1
DA:162,6
DA:169,1
DA:170,1
DA:171,1
DA:173,2
DA:174,1
DA:175,2
DA:177,5
DA:178,5
DA:179,5
DA:180,5
DA:184,1
DA:185,1
DA:187,2
DA:188,1
DA:189,1
DA:192,4
DA:193,4
DA:197,8
DA:199,5
DA:201,6
DA:202,6
DA:204,12
DA:207,4
DA:208,4
DA:209,0
DA:211,4
DA:213,0
DA:214,0
DA:217,4
DA:218,8
DA:222,1
DA:225,2
DA:228,1
DA:229,1
DA:230,0
DA:232,1
DA:233,1
DA:238,2
DA:240,1
DA:242,0
DA:248,1
DA:249,1
DA:250,1
DA:253,1
DA:260,3
DA:268,0
DA:270,1
DA:271,1
DA:273,1
DA:276,2
DA:279,0
DA:281,0
DA:283,0
DA:289,84
LF:96
LH:77
end_of_record
TN:
SF:/home/tbrock/Code/mongo-cxx-driver/src/mongo/client/sasl_client_session.h
FNF:0
FNH:0
DA:128,10
LF:1
LH:1
end_of_record
TN:
SF:/home/tbrock/Code/mongo-cxx-driver/src/mongo/client/sasl_sspi.cpp
FN:532,_GLOBAL__sub_I_sasl_sspi.cpp
FN:532,_ZN5mongo48_mongoInitializerFunctionAssure_client_sasl_sspiEv
FN:532,_Z41__static_initialization_and_destruction_0ii
FNDA:28,_Z41__static_initialization_and_destruction_0ii
FNDA:0,_ZN5mongo48_mongoInitializerFunctionAssure_client_sasl_sspiEv
FNDA:28,_GLOBAL__sub_I_sasl_sspi.cpp
FNF:3
FNH:2
DA:532,84
LF:1
LH:1
end_of_record
TN:
SF:/home/tbrock/Code/mongo-cxx-driver/src/mongo/db/dbmessage.cpp
FN:25,_ZNK5mongo7Message8toStringEv
FN:58,_ZN5mongo12replyToQueryEiPNS_21AbstractMessagingPortERNS_7MessageEPviiix
FN:79,_ZN5mongo12replyToQueryEiPNS_21AbstractMessagingPortERNS_7MessageERKNS_7BSONObjE
FN:87,_ZN5mongo12replyToQueryEiRNS_7MessageERNS_10DbResponseENS_7BSONObjE
FN:94,_ZN5mongo12replyToQueryEiRNS_7MessageERKNS_7BSONObjE
FN:113,_Z41__static_initialization_and_destruction_0ii
FN:113,_GLOBAL__sub_I_dbmessage.cpp
FNDA:0,_ZN5mongo12replyToQueryEiPNS_21AbstractMessagingPortERNS_7MessageEPviiix
FNDA:28,_Z41__static_initialization_and_destruction_0ii
FNDA:0,_ZNK5mongo7Message8toStringEv
FNDA:0,_ZN5mongo12replyToQueryEiPNS_21AbstractMessagingPortERNS_7MessageERKNS_7BSONObjE
FNDA:28,_GLOBAL__sub_I_dbmessage.cpp
FNDA:0,_ZN5mongo12replyToQueryEiRNS_7MessageERKNS_7BSONObjE
FNDA:0,_ZN5mongo12replyToQueryEiRNS_7MessageERNS_10DbResponseENS_7BSONObjE
FNF:7
FNH:2
DA:25,0
DA:26,0
DA:27,0
DA:28,0
DA:29,0
DA:30,0
DA:31,0
DA:33,0
DA:34,0
DA:35,0
DA:36,0
DA:40,0
DA:41,0
DA:43,0
DA:44,0
DA:45,0
DA:49,0
DA:54,0
DA:58,0
DA:64,0
DA:65,0
DA:66,0
DA:67,0
DA:68,0
DA:69,0
DA:70,0
DA:71,0
DA:72,0
DA:73,0
DA:74,0
DA:75,0
DA:76,0
DA:77,0
DA:79,0
DA:84,0
DA:85,0
DA:87,0
DA:88,0
DA:89,0
DA:90,0
DA:91,0
DA:92,0
DA:94,0
DA:95,0
DA:96,0
DA:98,0
DA:100,0
DA:101,0
DA:103,0
DA:104,0
DA:105,0
DA:106,0
DA:107,0
DA:108,0
DA:110,0
DA:111,0
DA:113,84
LF:57
LH:1
end_of_record
TN:
SF:/home/tbrock/Code/mongo-cxx-driver/src/mongo/db/dbmessage.h
FN:112,_ZN5mongo9DbMessageC2ERKNS_7MessageE
FN:157,_ZN5mongo9DbMessage7pullIntEv.isra.24
FN:157,_ZN5mongo9DbMessage7pullIntEv.isra.18
FN:190,_ZN5mongo9DbMessage9nextJsObjEv
FN:244,_ZN5mongo12QueryMessageD2Ev
FN:257,_ZN5mongo12QueryMessageC2ERNS_9DbMessageE
FNDA:0,_ZN5mongo9DbMessage7pullIntEv.isra.24
FNDA:0,_ZN5mongo9DbMessage7pullIntEv.isra.18
FNDA:0,_ZN5mongo9DbMessage9nextJsObjEv
FNDA:0,_ZN5mongo9DbMessageC2ERKNS_7MessageE
FNDA:0,_ZN5mongo12QueryMessageD2Ev
FNDA:0,_ZN5mongo12QueryMessageC2ERNS_9DbMessageE
FNF:6
FNH:0
DA:90,351
DA:93,0
DA:112,0
DA:114,0
DA:115,0
DA:116,0
DA:117,0
DA:118,0
DA:119,0
DA:157,0
DA:158,0
DA:159,0
DA:160,0
DA:161,0
DA:162,0
DA:190,0
DA:191,0
DA:192,0
DA:193,0
DA:195,0
DA:197,0
DA:199,0
DA:200,0
DA:201,0
DA:203,0
DA:206,0
DA:207,0
DA:208,0
DA:210,0
DA:211,0
DA:212,0
DA:213,0
DA:244,0
DA:257,0
DA:258,0
DA:259,0
DA:260,0
DA:261,0
DA:262,0
DA:263,0
DA:265,0
DA:266,0
LF:42
LH:1
end_of_record
TN:
SF:/home/tbrock/Code/mongo-cxx-driver/src/mongo/db/jsobj.cpp
FN:74,_ZNK5mongo11BSONElement10jsonStringENS_16JsonStringFormatEbi
FN:307,_ZNK5mongo11BSONElement9getGtLtOpEi
FN:368,_ZNK5mongo11BSONElement5ArrayEv
FN:401,_ZN5mongo25appendElementHandlingGtLtERNS_14BSONObjBuilderERKNS_11BSONElementE
FN:413,_ZN5mongo9getGtLtOpERKNS_11BSONElementE
FN:421,_ZN5mongo23compareDottedFieldNamesERKSsS1_RKNS_9LexNumCmpE
FN:465,_ZNK5mongo7BSONObj3md5Ev
FN:474,_ZNK5mongo7BSONObj10jsonStringENS_16JsonStringFormatEi
FN:502,_ZNK5mongo7BSONObj5validEv
FN:506,_ZNK5mongo7BSONObj9woCompareERKS0_RKNS_8OrderingEb
FN:539,_ZNK5mongo7BSONObj9woCompareERKS0_S2_b
FN:582,_Z41__static_initialization_and_destruction_0ii
FN:583,_ZN5mongo13makeUndefinedEv
FN:591,_ZNK5mongo7BSONObj11woSortOrderERKS0_S2_b
FN:621,_ZNK5mongo7BSONObj10isPrefixOfERKS0_
FN:635,_ZNK5mongo7BSONObj19isFieldNamePrefixOfERKS0_
FN:651,_ZN5mongo16_getFieldsDottedISt3setINS_11BSONElementENS_26BSONElementCmpWithoutFieldESaIS2_EEEEvPKNS_7BSONObjERKNS_10StringDataERT_b
FN:651,_ZN5mongo16_getFieldsDottedISt8multisetINS_11BSONElementENS_26BSONElementCmpWithoutFieldESaIS2_EEEEvPKNS_7BSONObjERKNS_10StringDataERT_b
FN:702,_ZNK5mongo7BSONObj15getFieldsDottedERKNS_10StringDataERSt3setINS_11BSONElementENS_26BSONElementCmpWithoutFieldESaIS5_EEb
FN:705,_ZNK5mongo7BSONObj15getFieldsDottedERKNS_10StringDataERSt8multisetINS_11BSONElementENS_26BSONElementCmpWithoutFieldESaIS5_EEb
FN:709,_ZNK5mongo7BSONObj21getFieldDottedOrArrayERPKc
FN:733,_ZNK5mongo7BSONObj21extractFieldsUnDottedERKS0_
FN:747,_ZNK5mongo7BSONObj13extractFieldsERKS0_b
FN:763,_ZNK5mongo7BSONObj20filterFieldsUndottedERKS0_b
FN:778,_ZNK5mongo7BSONObj23getFieldUsingIndexNamesERKNS_10StringDataERKS0_
FN:804,_ZNK5mongo7BSONObj13getFieldNamesERSt3setISsSt4lessISsESaISsEE
FN:820,_ZN5mongo7BSONObj9addFieldsERS0_RSt3setISsSt4lessISsESaISsEE
FN:854,_ZNK5mongo7BSONObj12couldBeArrayEv
FN:869,_ZNK5mongo7BSONObj14clientReadableEv
FN:896,_ZNK5mongo7BSONObj17replaceFieldNamesERKS0_
FN:916,_ZNK5mongo7BSONObj13_okForStorageEbb
FN:1001,_ZNK5mongo7BSONObj4dumpEv
FN:1014,_ZN5mongo13nested2dottedERNS_14BSONObjBuilderERKNS_7BSONObjERKSs
FN:1029,_ZN5mongo13dotted2nestedERNS_14BSONObjBuilderERKNS_7BSONObjE
FN:1090,_ZN5mongo14BSONObjBuilder16appendMinForTypeERKNS_10StringDataEi
FN:1149,_ZN5mongo14BSONObjBuilder16appendMaxForTypeERKNS_10StringDataEi
FN:1202,_ZN5mongo11fieldsMatchERKNS_7BSONObjES2_
FN:1224,_ZN5mongo18BSONIteratorSorted15ElementFieldCmpC2Eb
FN:1228,_ZNK5mongo18BSONIteratorSorted15ElementFieldCmpclEPKcS3_
FN:1234,_ZN5mongo18BSONIteratorSortedC2ERKNS_7BSONObjERKNS0_15ElementFieldCmpE
FN:1248,_ZN5mongo21BSONObjIteratorSortedC2ERKNS_7BSONObjE
FN:1252,_ZN5mongo23BSONArrayIteratorSortedC2ERKNS_9BSONArrayE
FN:1256,_ZN5mongo14BSONObjBuilder14appendAsNumberERKNS_10StringDataERKSs
FN:1302,_ZN5mongo8typeNameENS_8BSONTypeE
FN:1330,_GLOBAL__sub_I_jsobj.cpp
FNDA:184319,_ZNK5mongo7BSONObj10jsonStringENS_16JsonStringFormatEi
FNDA:734066,_ZNK5mongo11BSONElement10jsonStringENS_16JsonStringFormatEbi
FNDA:100009,_ZNK5mongo7BSONObj3md5Ev
FNDA:0,_ZNK5mongo7BSONObj21extractFieldsUnDottedERKS0_
FNDA:28,_Z41__static_initialization_and_destruction_0ii
FNDA:20,_ZN5mongo8typeNameENS_8BSONTypeE
FNDA:2,_ZNK5mongo7BSONObj19isFieldNamePrefixOfERKS0_
FNDA:4,_ZN5mongo13dotted2nestedERNS_14BSONObjBuilderERKNS_7BSONObjE
FNDA:6,_ZNK5mongo7BSONObj11woSortOrderERKS0_S2_b
FNDA:0,_ZN5mongo16_getFieldsDottedISt8multisetINS_11BSONElementENS_26BSONElementCmpWithoutFieldESaIS2_EEEEvPKNS_7BSONObjERKNS_10StringDataERT_b
FNDA:4,_ZNK5mongo7BSONObj13extractFieldsERKS0_b
FNDA:10003,_ZN5mongo18BSONIteratorSorted15ElementFieldCmpC2Eb
FNDA:0,_ZN5mongo9getGtLtOpERKNS_11BSONElementE
FNDA:68,_ZNK5mongo7BSONObj13_okForStorageEbb
FNDA:0,_ZNK5mongo7BSONObj21getFieldDottedOrArrayERPKc
FNDA:10,_ZNK5mongo7BSONObj10isPrefixOfERKS0_
FNDA:8,_ZN5mongo14BSONObjBuilder14appendAsNumberERKNS_10StringDataERKSs
FNDA:0,_ZN5mongo11fieldsMatchERKNS_7BSONObjES2_
FNDA:105,_ZN5mongo14BSONObjBuilder16appendMaxForTypeERKNS_10StringDataEi
FNDA:2222,_ZNK5mongo7BSONObj9woCompareERKS0_S2_b
FNDA:0,_ZN5mongo7BSONObj9addFieldsERS0_RSt3setISsSt4lessISsESaISsEE
FNDA:10002,_ZN5mongo21BSONObjIteratorSortedC2ERKNS_7BSONObjE
FNDA:0,_ZNK5mongo7BSONObj15getFieldsDottedERKNS_10StringDataERSt3setINS_11BSONElementENS_26BSONElementCmpWithoutFieldESaIS5_EEb
FNDA:0,_ZNK5mongo7BSONObj23getFieldUsingIndexNamesERKNS_10StringDataERKS0_
FNDA:0,_ZNK5mongo7BSONObj12couldBeArrayEv
FNDA:9,_ZN5mongo13nested2dottedERNS_14BSONObjBuilderERKNS_7BSONObjERKSs
FNDA:0,_ZN5mongo25appendElementHandlingGtLtERNS_14BSONObjBuilderERKNS_11BSONElementE
FNDA:0,_ZNK5mongo7BSONObj20filterFieldsUndottedERKS0_b
FNDA:0,_ZNK5mongo7BSONObj9woCompareERKS0_RKNS_8OrderingEb
FNDA:1,_ZN5mongo23BSONArrayIteratorSortedC2ERKNS_9BSONArrayE
FNDA:36,_ZN5mongo23compareDottedFieldNamesERKSsS1_RKNS_9LexNumCmpE
FNDA:0,_ZNK5mongo11BSONElement5ArrayEv
FNDA:28,_GLOBAL__sub_I_jsobj.cpp
FNDA:5297,_ZNK5mongo7BSONObj5validEv
FNDA:10003,_ZN5mongo18BSONIteratorSortedC2ERKNS_7BSONObjERKNS0_15ElementFieldCmpE
FNDA:0,_ZN5mongo16_getFieldsDottedISt3setINS_11BSONElementENS_26BSONElementCmpWithoutFieldESaIS2_EEEEvPKNS_7BSONObjERKNS_10StringDataERT_b
FNDA:0,_ZNK5mongo7BSONObj17replaceFieldNamesERKS0_
FNDA:0,_ZNK5mongo11BSONElement9getGtLtOpEi
FNDA:0,_ZNK5mongo7BSONObj4dumpEv
FNDA:0,_ZNK5mongo7BSONObj13getFieldNamesERSt3setISsSt4lessISsESaISsEE
FNDA:0,_ZNK5mongo7BSONObj15getFieldsDottedERKNS_10StringDataERSt8multisetINS_11BSONElementENS_26BSONElementCmpWithoutFieldESaIS5_EEb
FNDA:28,_ZN5mongo13makeUndefinedEv
FNDA:158,_ZN5mongo14BSONObjBuilder16appendMinForTypeERKNS_10StringDataEi
FNDA:0,_ZNK5mongo7BSONObj14clientReadableEv
FNDA:80029,_ZNK5mongo18BSONIteratorSorted15ElementFieldCmpclEPKcS3_
FNF:45
FNH:25
DA:74,1468132
DA:77,734066
DA:78,734066
DA:79,2760200
DA:80,1468132
DA:83,2206596
DA:84,367766
DA:86,25
DA:87,14
DA:90,36
DA:94,182077
DA:95,21
DA:99,364152
DA:101,182073
DA:102,182073
DA:107,5
DA:108,3
DA:110,2
DA:111,2
DA:115,0
DA:116,0
DA:117,0
DA:121,18
DA:124,5
DA:127,10
DA:128,4
DA:131,6
DA:135,546474
DA:136,182158
DA:138,5496
DA:139,4
DA:142,1828
DA:143,3656
DA:144,1828
DA:145,1828
DA:148,182026
DA:150,0
DA:151,0
DA:154,182026
DA:155,0
DA:158,364052
DA:159,182026
DA:161,182026
DA:162,182026
DA:164,180198
DA:167,1828
DA:171,10
DA:172,5
DA:173,1
DA:175,4
DA:176,10
DA:177,5
DA:178,4
DA:179,5
DA:180,5
DA:187,21
DA:188,7
DA:191,14
DA:193,42
DA:194,21
DA:195,7
DA:198,14
DA:202,31
DA:204,31
DA:205,31
DA:206,31
DA:207,31
DA:208,31
DA:209,31
DA:211,31
DA:212,31
DA:216,40
DA:218,14
DA:219,14
DA:220,10
DA:223,27
DA:225,14
DA:228,26
DA:229,26
DA:231,0
DA:234,0
DA:237,0
DA:241,52
DA:243,26
DA:247,34
DA:248,36
DA:249,12
DA:252,88
DA:254,44
DA:259,14
DA:268,2
DA:269,2
DA:270,8
DA:271,8
DA:277,8
DA:278,2
DA:281,16
DA:282,15
DA:285,33
DA:290,1
DA:294,1
DA:299,0
DA:300,0
DA:301,0
DA:302,0
DA:304,734066
DA:307,0
DA:308,0
DA:309,0
DA:310,0
DA:311,0
DA:312,0
DA:313,0
DA:315,0
DA:316,0
DA:317,0
DA:320,0
DA:321,0
DA:323,0
DA:326,0
DA:327,0
DA:329,0
DA:332,0
DA:334,0
DA:336,0
DA:338,0
DA:340,0
DA:342,0
DA:343,0
DA:345,0
DA:348,0
DA:350,0
DA:352,0
DA:354,0
DA:356,0
DA:358,0
DA:361,0
DA:368,0
DA:369,0
DA:371,0
DA:372,0
DA:373,0
DA:374,0
DA:377,0
DA:378,0
DA:379,0
DA:380,0
DA:381,0
DA:382,0
DA:388,0
DA:401,0
DA:402,0
DA:403,0
DA:404,0
DA:405,0
DA:406,0
DA:407,0
DA:410,0
DA:413,0
DA:414,0
DA:417,0
DA:418,0
DA:421,36
DA:425,36
DA:426,36
DA:428,92
DA:430,46
DA:431,46
DA:433,92
DA:434,92
DA:436,46
DA:437,46
DA:439,138
DA:441,46
DA:443,39
DA:446,32
DA:447,32
DA:449,32
DA:450,18
DA:452,4
DA:454,14
DA:458,0
DA:459,0
DA:465,100009
DA:468,100009
DA:469,100009
DA:470,100009
DA:471,100009
DA:474,184319
DA:476,184319
DA:479,184311
DA:481,184311
DA:482,184311
DA:484,1656120
DA:485,552040
DA:486,552040
DA:488,367729
DA:489,367729
DA:490,0
DA:491,0
DA:492,0
DA:495,367729
DA:498,184311
DA:499,184311
DA:502,5297
DA:503,15891
DA:506,0
DA:507,0
DA:508,0
DA:509,0
DA:518,0
DA:519,0
DA:520,0
DA:521,0
DA:522,0
DA:527,0
DA:528,0
DA:529,0
DA:531,0
DA:533,0
DA:535,0
DA:539,2222
DA:541,2222
DA:542,20
DA:543,2202
DA:546,2202
DA:554,3025
DA:555,3025
DA:557,3025
DA:558,23
DA:559,3025
DA:560,2880
DA:561,2347
DA:572,2346
DA:573,2366
DA:574,3
DA:576,2346
DA:579,823
DA:582,28
DA:583,28
DA:584,28
DA:585,28
DA:586,28
DA:588,28
DA:591,6
DA:592,6
DA:593,0
DA:594,6
DA:597,6
DA:601,8
DA:602,8
DA:603,6
DA:605,21
DA:606,7
DA:607,1
DA:608,21
DA:609,7
DA:610,2
DA:612,7
DA:613,7
DA:614,0
DA:615,7
DA:618,2
DA:621,10
DA:625,33
DA:626,13
DA:627,13
DA:628,13
DA:629,4
DA:632,6
DA:635,2
DA:639,5
DA:640,2
DA:641,2
DA:642,6
DA:643,1
DA:647,1
DA:651,0
DA:652,0
DA:654,0
DA:655,0
DA:656,0
DA:657,0
DA:658,0
DA:660,0
DA:662,0
DA:663,0
DA:665,0
DA:666,0
DA:667,0
DA:669,0
DA:670,0
DA:671,0
DA:673,0
DA:674,0
DA:677,0
DA:678,0
DA:679,0
DA:680,0
DA:681,0
DA:691,0
DA:692,0
DA:693,0
DA:694,0
DA:700,0
DA:702,0
DA:703,0
DA:704,0
DA:705,0
DA:706,0
DA:707,0
DA:709,0
DA:710,0
DA:714,0
DA:715,0
DA:716,0
DA:719,0
DA:720,0
DA:723,0
DA:724,0
DA:725,0
DA:726,0
DA:727,0
DA:728,0
DA:730,0
DA:733,0
DA:734,0
DA:736,0
DA:737,0
DA:738,0
DA:740,0
DA:741,0
DA:742,0
DA:744,0
DA:747,4
DA:748,4
DA:750,10
DA:751,10
DA:752,10
DA:754,12
DA:755,6
DA:756,10
DA:757,1
DA:758,0
DA:760,4
DA:763,0
DA:764,0
DA:766,0
DA:767,0
DA:768,0
DA:770,0
DA:771,0
DA:772,0
DA:773,0
DA:775,0
DA:778,0
DA:782,0
DA:783,0
DA:784,0
DA:785,0
DA:786,0
DA:788,0
DA:791,0
DA:792,0
DA:793,0
DA:794,0
DA:795,0
DA:796,0
DA:798,0
DA:800,0
DA:804,0
DA:805,0
DA:807,0
DA:808,0
DA:809,0
DA:811,0
DA:812,0
DA:814,0
DA:820,0
DA:821,0
DA:823,0
DA:825,0
DA:826,0
DA:829,0
DA:830,0
DA:831,0
DA:832,0
DA:833,0
DA:834,0
DA:835,0
DA:836,0
DA:839,0
DA:840,0
DA:841,0
DA:842,0
DA:847,0
DA:848,0
DA:851,0
DA:854,0
DA:857,0
DA:858,0
DA:859,0
DA:862,0
DA:863,0
DA:864,0
DA:869,0
DA:870,0
DA:872,0
DA:873,0
DA:874,0
DA:876,0
DA:878,0
DA:879,0
DA:880,0
DA:881,0
DA:884,0
DA:885,0
DA:886,0
DA:887,0
DA:890,0
DA:893,0
DA:896,0
DA:897,0
DA:900,0
DA:901,0
DA:902,0
DA:903,0
DA:905,0
DA:906,0
DA:907,0
DA:910,0
DA:913,0
DA:916,68
DA:921,101
DA:922,72
DA:923,72
DA:926,77
DA:927,42
DA:929,46
DA:930,44
DA:932,7
DA:934,7
DA:935,7
DA:938,14
DA:939,2
DA:943,5
DA:945,14
DA:951,70
DA:956,116
DA:958,21
DA:963,133
DA:964,77
DA:966,40
DA:968,60
DA:971,90
DA:972,54
DA:976,54
DA:978,27
DA:981,13
DA:984,0
DA:986,0
DA:989,0
DA:991,0
DA:996,31
DA:1001,0
DA:1003,0
DA:1004,0
DA:1005,0
DA:1006,0
DA:1007,0
DA:1008,0
DA:1010,0
DA:1011,0
DA:1012,0
DA:1014,9
DA:1016,24
DA:1017,15
DA:1018,30
DA:1019,10
DA:1020,10
DA:1023,10
DA:1024,10
DA:1027,9
DA:1029,4
DA:1031,4
DA:1032,8
DA:1033,22
DA:1034,30
DA:1037,4
DA:1044,28
DA:1045,28
DA:1046,28
DA:1047,28
DA:1054,28
DA:1058,28
DA:1059,28
DA:1060,28
DA:1061,28
DA:1068,28
DA:1090,158
DA:1091,158
DA:1097,14
DA:1100,12
DA:1103,6
DA:1105,6
DA:1107,6
DA:1109,6
DA:1113,0
DA:1115,6
DA:1118,12
DA:1119,12
DA:1123,6
DA:1125,6
DA:1127,36
DA:1129,24
DA:1131,12
DA:1133,6
DA:1136,12
DA:1137,12
DA:1141,12
DA:1143,24
DA:1145,0
DA:1146,0
DA:1149,105
DA:1150,105
DA:1156,14
DA:1159,12
DA:1161,12
DA:1163,14
DA:1165,6
DA:1169,0
DA:1171,0
DA:1174,6
DA:1175,6
DA:1179,6
DA:1181,6
DA:1183,6
DA:1185,6
DA:1187,6
DA:1189,6
DA:1191,6
DA:1193,6
DA:1196,6
DA:1198,0
DA:1199,0
DA:1202,0
DA:1206,0
DA:1207,0
DA:1212,0
DA:1224,10003
DA:1225,10003
DA:1226,10003
DA:1228,80029
DA:1231,240087
DA:1234,10003
DA:1235,10003
DA:1236,10003
DA:1237,10003
DA:1239,50020
DA:1240,40017
DA:1241,40017
DA:1243,10003
DA:1244,10003
DA:1245,10003
DA:1246,10003
DA:1248,10002
DA:1249,10002
DA:1250,10002
DA:1252,1
DA:1253,1
DA:1254,1
DA:1256,8
DA:1257,24
DA:1260,8
DA:1261,8
DA:1262,2
DA:1266,60
DA:1267,58
DA:1270,5
DA:1271,2
DA:1280,5
DA:1281,4
DA:1282,2
DA:1283,2
DA:1286,3
DA:1287,4
DA:1288,2
DA:1292,1
DA:1293,1
DA:1302,20
DA:1303,20
DA:1305,0
DA:1306,1
DA:1307,5
DA:1308,0
DA:1309,2
DA:1310,0
DA:1311,0
DA:1312,0
DA:1313,1
DA:1314,0
DA:1315,0
DA:1316,8
DA:1317,0
DA:1318,0
DA:1319,0
DA:1320,0
DA:1321,3
DA:1322,0
DA:1323,0
DA:1325,0
DA:1326,0
DA:1330,84
LF:613
LH:337
end_of_record
TN:
SF:/home/tbrock/Code/mongo-cxx-driver/src/mongo/db/json.cpp
FN:75,_ZN5mongo6JParseC2EPKc
FN:78,_ZN5mongo6JParse10parseErrorERKNS_10StringDataE
FN:88,_ZN5mongo6JParse5valueERKNS_10StringDataERNS_14BSONObjBuilderE
FN:189,_ZN5mongo6JParse6objectERKNS_10StringDataERNS_14BSONObjBuilderEb
FN:324,_ZN5mongo6JParse14objectIdObjectERKNS_10StringDataERNS_14BSONObjBuilderE
FN:344,_ZN5mongo6JParse12binaryObjectERKNS_10StringDataERNS_14BSONObjBuilderE
FN:386,_ZN5mongo6JParse10dateObjectERKNS_10StringDataERNS_14BSONObjBuilderE
FN:462,_ZN5mongo6JParse15timestampObjectERKNS_10StringDataERNS_14BSONObjBuilderE
FN:523,_ZN5mongo6JParse11regexObjectERKNS_10StringDataERNS_14BSONObjBuilderE
FN:558,_ZN5mongo6JParse11dbRefObjectERKNS_10StringDataERNS_14BSONObjBuilderE
FN:608,_ZN5mongo6JParse15undefinedObjectERKNS_10StringDataERNS_14BSONObjBuilderE
FN:619,_ZN5mongo6JParse16numberLongObjectERKNS_10StringDataERNS_14BSONObjBuilderE
FN:643,_ZN5mongo6JParse5arrayERKNS_10StringDataERNS_14BSONObjBuilderE
FN:670,_ZN5mongo6JParse11constructorERKNS_10StringDataERNS_14BSONObjBuilderE
FN:680,_ZN5mongo6JParse4dateERKNS_10StringDataERNS_14BSONObjBuilderE
FN:711,_ZN5mongo6JParse9timestampERKNS_10StringDataERNS_14BSONObjBuilderE
FN:754,_ZN5mongo6JParse8objectIdERKNS_10StringDataERNS_14BSONObjBuilderE
FN:777,_ZN5mongo6JParse10numberLongERKNS_10StringDataERNS_14BSONObjBuilderE
FN:800,_ZN5mongo6JParse9numberIntERKNS_10StringDataERNS_14BSONObjBuilderE
FN:824,_ZN5mongo6JParse5dbRefERKNS_10StringDataERNS_14BSONObjBuilderE
FN:865,_ZN5mongo6JParse5regexERKNS_10StringDataERNS_14BSONObjBuilderE
FN:892,_ZN5mongo6JParse8regexPatEPSs
FN:897,_ZN5mongo6JParse8regexOptEPSs
FN:902,_ZN5mongo6JParse13regexOptCheckERKNS_10StringDataE
FN:913,_ZN5mongo6JParse6numberERKNS_10StringDataERNS_14BSONObjBuilderE
FN:959,_ZN5mongo6JParse5fieldEPSs
FN:985,_ZN5mongo6JParse12quotedStringEPSs
FN:1015,_ZN5mongo6JParse5charsEPSsPKcS3_
FN:1093,_ZNK5mongo6JParse10encodeUTF8Ehh
FN:1118,_ZN5mongo6JParse13readTokenImplEPKcb
FN:1142,_ZN5mongo6JParse9readFieldERKNS_10StringDataE
FN:1156,_ZNK5mongo6JParse5matchEcPKc.isra.21
FN:1166,_ZNK5mongo6JParse11isHexStringERKNS_10StringDataE
FN:1177,_ZNK5mongo6JParse14isBase64StringERKNS_10StringDataE
FN:1188,_ZN5mongo8fromjsonEPKcPi
FN:1215,_ZN5mongo8fromjsonERKSs
FN:1219,_GLOBAL__sub_I_json.cpp
FN:1219,_Z41__static_initialization_and_destruction_0ii
FNDA:27,_ZN5mongo6JParse5arrayERKNS_10StringDataERNS_14BSONObjBuilderE
FNDA:20,_ZN5mongo6JParse15timestampObjectERKNS_10StringDataERNS_14BSONObjBuilderE
FNDA:34,_ZN5mongo6JParse8regexOptEPSs
FNDA:34,_ZN5mongo6JParse5regexERKNS_10StringDataERNS_14BSONObjBuilderE
FNDA:27,_ZN5mongo6JParse10dateObjectERKNS_10StringDataERNS_14BSONObjBuilderE
FNDA:17,_ZN5mongo6JParse10numberLongERKNS_10StringDataERNS_14BSONObjBuilderE
FNDA:1246,_ZN5mongo6JParse6objectERKNS_10StringDataERNS_14BSONObjBuilderEb
FNDA:28,_ZN5mongo6JParse11regexObjectERKNS_10StringDataERNS_14BSONObjBuilderE
FNDA:5,_ZN5mongo6JParse15undefinedObjectERKNS_10StringDataERNS_14BSONObjBuilderE
FNDA:1173,_ZN5mongo6JParse5valueERKNS_10StringDataERNS_14BSONObjBuilderE
FNDA:53,_ZN5mongo6JParse13regexOptCheckERKNS_10StringDataE
FNDA:9,_ZN5mongo6JParse11constructorERKNS_10StringDataERNS_14BSONObjBuilderE
FNDA:799,_ZN5mongo6JParseC2EPKc
FNDA:58,_ZN5mongo6JParse12binaryObjectERKNS_10StringDataERNS_14BSONObjBuilderE
FNDA:45,_ZN5mongo6JParse4dateERKNS_10StringDataERNS_14BSONObjBuilderE
FNDA:28,_GLOBAL__sub_I_json.cpp
FNDA:107,_ZNK5mongo6JParse11isHexStringERKNS_10StringDataE
FNDA:1732,_ZN5mongo6JParse12quotedStringEPSs
FNDA:17,_ZN5mongo6JParse8objectIdERKNS_10StringDataERNS_14BSONObjBuilderE
FNDA:14,_ZN5mongo6JParse16numberLongObjectERKNS_10StringDataERNS_14BSONObjBuilderE
FNDA:799,_ZN5mongo8fromjsonEPKcPi
FNDA:27,_ZNK5mongo6JParse10encodeUTF8Ehh
FNDA:12,_ZN5mongo6JParse5dbRefERKNS_10StringDataERNS_14BSONObjBuilderE
FNDA:1473,_ZN5mongo6JParse5fieldEPSs
FNDA:22859,_ZN5mongo6JParse13readTokenImplEPKcb
FNDA:610,_ZN5mongo8fromjsonERKSs
FNDA:112,_ZN5mongo6JParse10parseErrorERKNS_10StringDataE
FNDA:28,_Z41__static_initialization_and_destruction_0ii
FNDA:1969,_ZN5mongo6JParse5charsEPSsPKcS3_
FNDA:15,_ZN5mongo6JParse9timestampERKNS_10StringDataERNS_14BSONObjBuilderE
FNDA:52,_ZNK5mongo6JParse14isBase64StringERKNS_10StringDataE
FNDA:45,_ZN5mongo6JParse11dbRefObjectERKNS_10StringDataERNS_14BSONObjBuilderE
FNDA:157,_ZN5mongo6JParse9readFieldERKNS_10StringDataE
FNDA:19,_ZN5mongo6JParse14objectIdObjectERKNS_10StringDataERNS_14BSONObjBuilderE
FNDA:292,_ZN5mongo6JParse6numberERKNS_10StringDataERNS_14BSONObjBuilderE
FNDA:12114,_ZNK5mongo6JParse5matchEcPKc.isra.21
FNDA:29,_ZN5mongo6JParse9numberIntERKNS_10StringDataERNS_14BSONObjBuilderE
FNDA:34,_ZN5mongo6JParse8regexPatEPSs
FNF:38
FNH:38
DA:75,799
DA:76,799
DA:78,336
DA:79,112
DA:80,112
DA:81,112
DA:82,336
DA:83,112
DA:84,112
DA:85,224
DA:88,1173
DA:90,2346
DA:91,447
DA:92,894
DA:96,1452
DA:97,27
DA:98,54
DA:102,699
DA:103,9
DA:104,18
DA:108,690
DA:109,36
DA:110,72
DA:114,654
DA:115,15
DA:116,30
DA:120,639
DA:121,17
DA:122,34
DA:126,622
DA:127,17
DA:128,34
DA:132,605
DA:133,29
DA:134,58
DA:138,1142
DA:139,12
DA:140,24
DA:144,1128
DA:145,34
DA:146,68
DA:150,1449
DA:152,161
DA:153,161
DA:154,322
DA:159,369
DA:160,26
DA:162,343
DA:163,5
DA:165,338
DA:166,40
DA:168,298
DA:169,6
DA:171,292
DA:172,0
DA:174,292
DA:175,0
DA:177,292
DA:178,0
DA:181,292
DA:182,584
DA:189,1246
DA:191,2492
DA:192,1
DA:196,2490
DA:197,14
DA:198,0
DA:199,0
DA:206,1231
DA:207,1231
DA:208,2462
DA:212,1215
DA:213,20
DA:214,1
DA:216,19
DA:217,38
DA:221,1195
DA:222,58
DA:223,0
DA:225,58
DA:226,116
DA:230,1137
DA:231,27
DA:232,0
DA:234,27
DA:235,54
DA:239,1110
DA:240,20
DA:241,0
DA:243,20
DA:244,40
DA:248,1090
DA:249,28
DA:250,0
DA:252,28
DA:253,56
DA:257,1062
DA:258,46
DA:259,1
DA:261,45
DA:262,90
DA:266,1016
DA:267,5
DA:268,0
DA:270,5
DA:271,10
DA:275,1011
DA:276,14
DA:277,0
DA:279,14
DA:280,28
DA:288,997
DA:290,997
DA:291,231
DA:292,231
DA:295,1994
DA:296,17
DA:298,980
DA:299,1960
DA:302,1994
DA:304,81
DA:305,81
DA:306,162
DA:309,160
DA:310,1
DA:312,79
DA:313,158
DA:318,2202
DA:319,13
DA:324,19
DA:325,38
DA:326,0
DA:329,19
DA:330,19
DA:331,38
DA:334,19
DA:335,6
DA:337,17
DA:338,3
DA:340,16
DA:344,58
DA:345,116
DA:346,0
DA:349,58
DA:350,58
DA:351,116
DA:354,58
DA:355,6
DA:357,52
DA:358,1
DA:360,51
DA:361,102
DA:362,1
DA:365,50
DA:366,0
DA:368,100
DA:369,0
DA:372,50
DA:373,50
DA:374,100
DA:377,146
DA:378,5
DA:381,90
DA:382,135
DA:386,27
DA:387,54
DA:388,0
DA:390,27
DA:394,54
DA:396,8
DA:397,8
DA:398,8
DA:401,8
DA:402,8
DA:403,1
DA:405,7
DA:407,38
DA:409,4
DA:410,4
DA:411,8
DA:414,4
DA:415,0
DA:417,8
DA:418,0
DA:424,4
DA:425,8
DA:426,4
DA:431,4
DA:432,4
DA:435,4
DA:440,15
DA:441,15
DA:442,0
DA:444,15
DA:447,3
DA:451,3
DA:452,3
DA:453,1
DA:456,14
DA:458,25
DA:462,20
DA:463,40
DA:464,0
DA:466,40
DA:467,0
DA:470,20
DA:471,2
DA:473,36
DA:474,0
DA:476,18
DA:477,1
DA:479,17
DA:483,17
DA:484,17
DA:485,0
DA:487,17
DA:488,1
DA:490,16
DA:491,32
DA:492,2
DA:495,14
DA:496,0
DA:498,28
DA:499,0
DA:501,14
DA:502,1
DA:504,13
DA:507,13
DA:508,13
DA:509,0
DA:511,13
DA:512,0
DA:514,13
DA:516,26
DA:517,1
DA:519,12
DA:523,28
DA:524,56
DA:525,0
DA:528,28
DA:529,28
DA:530,56
DA:533,54
DA:534,20
DA:535,1
DA:537,38
DA:538,0
DA:541,19
DA:542,19
DA:543,38
DA:546,19
DA:547,38
DA:550,17
DA:553,7
DA:558,45
DA:560,45
DA:562,90
DA:563,0
DA:566,45
DA:567,45
DA:568,90
DA:571,45
DA:573,90
DA:574,0
DA:577,45
DA:578,0
DA:580,90
DA:581,0
DA:583,45
DA:584,90
DA:588,90
DA:589,8
DA:590,0
DA:592,16
DA:593,0
DA:596,8
DA:597,16
DA:598,16
DA:601,8
DA:604,90
DA:605,45
DA:608,5
DA:609,10
DA:610,0
DA:612,5
DA:613,1
DA:615,4
DA:619,14
DA:620,28
DA:621,0
DA:627,14
DA:628,14
DA:629,14
DA:634,14
DA:635,14
DA:639,14
DA:643,27
DA:645,27
DA:646,54
DA:647,0
DA:649,27
DA:650,54
DA:651,55
DA:652,171
DA:653,114
DA:656,55
DA:657,55
DA:659,50
DA:660,50
DA:661,0
DA:663,27
DA:670,9
DA:671,9
DA:672,18
DA:675,0
DA:680,45
DA:681,90
DA:682,0
DA:684,45
DA:688,45
DA:689,45
DA:690,2
DA:692,43
DA:695,3
DA:698,3
DA:699,3
DA:700,1
DA:703,42
DA:704,84
DA:705,4
DA:707,38
DA:711,15
DA:712,30
DA:713,0
DA:715,15
DA:716,1
DA:718,14
DA:722,14
DA:723,14
DA:724,0
DA:726,14
DA:727,2
DA:729,12
DA:730,24
DA:731,2
DA:733,10
DA:734,1
DA:736,9
DA:739,9
DA:740,9
DA:741,0
DA:743,9
DA:744,0
DA:746,9
DA:747,18
DA:748,1
DA:750,8
DA:754,17
DA:755,34
DA:756,0
DA:759,17
DA:760,17
DA:761,34
DA:764,34
DA:765,0
DA:767,17
DA:768,6
DA:770,15
DA:771,3
DA:773,14
DA:777,17
DA:778,34
DA:779,0
DA:781,17
DA:785,17
DA:786,17
DA:787,0
DA:789,17
DA:790,1
DA:792,16
DA:793,32
DA:794,0
DA:796,16
DA:800,29
DA:801,58
DA:802,0
DA:804,29
DA:808,29
DA:809,29
DA:810,0
DA:812,29
DA:813,1
DA:815,28
DA:816,56
DA:817,0
DA:824,12
DA:825,12
DA:827,24
DA:828,0
DA:831,12
DA:832,12
DA:833,24
DA:836,12
DA:838,24
DA:839,0
DA:842,12
DA:843,24
DA:847,24
DA:849,2
DA:850,2
DA:851,4
DA:854,2
DA:857,24
DA:858,0
DA:861,24
DA:862,12
DA:865,34
DA:866,68
DA:867,0
DA:870,34
DA:871,34
DA:872,68
DA:875,68
DA:876,0
DA:879,34
DA:880,34
DA:881,68
DA:884,34
DA:885,68
DA:888,34
DA:892,34
DA:894,34
DA:897,34
DA:899,34
DA:902,74
DA:905,144
DA:906,42
DA:907,8
DA:913,292
DA:920,292
DA:923,292
DA:925,292
DA:926,4
DA:928,288
DA:929,2
DA:932,286
DA:935,286
DA:936,286
DA:940,40
DA:942,246
DA:945,234
DA:950,12
DA:952,286
DA:953,286
DA:954,1
DA:959,1473
DA:961,3226
DA:964,1287
DA:971,541
DA:972,270
DA:973,85
DA:975,186
DA:976,1
DA:978,185
DA:979,15
DA:981,170
DA:985,1732
DA:987,3464
DA:988,1612
DA:989,3224
DA:992,3214
DA:993,0
DA:996,240
DA:997,119
DA:998,238
DA:1001,238
DA:1002,0
DA:1006,1
DA:1015,1969
DA:1018,1969
DA:1019,0
DA:1022,10292
DA:1024,8529
DA:1025,1113
DA:1026,203
DA:1030,8326
DA:1031,1
DA:1033,8325
DA:1034,141
DA:1036,39
DA:1037,8
DA:1038,6
DA:1039,2
DA:1040,10
DA:1041,5
DA:1042,10
DA:1043,5
DA:1044,10
DA:1047,29
DA:1048,29
DA:1049,0
DA:1051,29
DA:1052,2
DA:1054,27
DA:1055,27
DA:1056,27
DA:1057,148
DA:1058,94
DA:1060,27
DA:1065,2
DA:1067,0
DA:1075,0
DA:1077,15
DA:1080,139
DA:1083,8184
DA:1086,1763
DA:1087,1760
DA:1090,3
DA:1093,27
DA:1094,27
DA:1095,27
DA:1096,15
DA:1098,12
DA:1099,4
DA:1100,4
DA:1103,8
DA:1104,8
DA:1105,8
DA:1107,27
DA:1111,5189
DA:1115,17670
DA:1118,22859
DA:1120,22859
DA:1121,22859
DA:1127,36977
DA:1128,14118
DA:1130,34381
DA:1131,24255
DA:1134,24248
DA:1138,10126
DA:1142,157
DA:1145,157
DA:1146,157
DA:1147,314
DA:1150,156
DA:1153,154
DA:1156,12114
DA:1157,12114
DA:1160,12114
DA:1163,22002
DA:1166,1057
DA:1169,2104
DA:1170,1900
DA:1177,558
DA:1180,1114
DA:1181,1518
DA:1188,799
DA:1190,799
DA:1191,0
DA:1194,799
DA:1195,799
DA:1198,1598
DA:1206,1598
DA:1207,109
DA:1208,436
DA:1209,218
DA:1211,690
DA:1212,1489
DA:1215,610
DA:1216,610
DA:1219,84
LF:571
LH:506
end_of_record
TN:
SF:/home/tbrock/Code/mongo-cxx-driver/src/mongo/db/json.h
FNF:0
FNH:0
DA:399,112
LF:1
LH:1
end_of_record
TN:
SF:/home/tbrock/Code/mongo-cxx-driver/src/mongo/db/namespace_string-inl.h
FN:104,_ZN5mongo15NamespaceStringC2ERKNS_10StringDataE
FNDA:28,_ZN5mongo15NamespaceStringC2ERKNS_10StringDataE
FNDA:27,_ZNK5mongo15NamespaceString26getSystemIndexesCollectionEv
FNF:2
FNH:2
DA:22,27
DA:24,54
DA:28,1
DA:30,2
DA:104,28
DA:105,56
DA:106,28
DA:107,28
DA:179,27
DA:180,54
LF:10
LH:10
end_of_record
TN:
SF:/home/tbrock/Code/mongo-cxx-driver/src/mongo/db/namespace_string.h
FN:67,_ZNK5mongo15NamespaceString9isCommandEv
FN:160,_ZN5mongo21nsToDatabaseSubstringERKNS_10StringDataE
FN:177,_ZN5mongo12nsToDatabaseERKNS_10StringDataE
FN:182,_ZN5mongo23nsToCollectionSubstringERKNS_10StringDataE
FNDA:1,_ZN5mongo12nsToDatabaseERKNS_10StringDataE
FNDA:0,_ZN5mongo23nsToCollectionSubstringERKNS_10StringDataE
FNDA:1,_ZN5mongo21nsToDatabaseSubstringERKNS_10StringDataE
FNDA:0,_ZNK5mongo15NamespaceString9isCommandEv
FNF:4
FNH:2
DA:36,28
DA:67,0
DA:160,1
DA:161,1
DA:162,1
DA:163,0
DA:164,0
DA:166,1
DA:167,1
DA:177,1
DA:178,1
DA:182,0
DA:183,0
DA:184,0
DA:185,0
LF:15
LH:8
end_of_record
TN:
SF:/home/tbrock/Code/mongo-cxx-driver/src/mongo/db/server_options.cpp
FN:26,_Z41__static_initialization_and_destruction_0ii
FN:28,_GLOBAL__sub_I_server_options.cpp
FNDA:28,_Z41__static_initialization_and_destruction_0ii
FNDA:28,_GLOBAL__sub_I_server_options.cpp
FNF:2
FNH:2
DA:26,28
DA:28,84
LF:2
LH:2
end_of_record
TN:
SF:/home/tbrock/Code/mongo-cxx-driver/src/mongo/db/server_options.h
FN:25,_ZN5mongo18ServerGlobalParamsD2Ev
FN:27,_ZN5mongo18ServerGlobalParamsC2Ev
FNDA:28,_ZN5mongo18ServerGlobalParamsC2Ev
FNDA:28,_ZN5mongo18ServerGlobalParamsD2Ev
FNF:2
FNH:2
DA:25,280
DA:27,28
DA:32,280
DA:34,28
DA:35,28
DA:94,28
LF:6
LH:6
end_of_record
TN:
SF:/home/tbrock/Code/mongo-cxx-driver/src/mongo/logger/appender.h
FN:35,_ZN5mongo6logger8AppenderINS0_21MessageEventEphemeralEED0Ev
FN:35,_ZN5mongo6logger8AppenderINS0_21MessageEventEphemeralEED2Ev
FNDA:0,_ZN5mongo6logger8AppenderINS0_21MessageEventEphemeralEED0Ev
FNDA:0,_ZN5mongo6logger8AppenderINS0_21MessageEventEphemeralEED2Ev
FNF:2
FNH:0
DA:31,32
DA:35,5
LF:2
LH:2
end_of_record
TN:
SF:/home/tbrock/Code/mongo-cxx-driver/src/mongo/logger/console.cpp
FN:40,_Z41__static_initialization_and_destruction_0ii
FN:224,_ZN5mongo7ConsoleC2Ev
FN:231,_ZN5mongo7Console3outEv
FN:242,_GLOBAL__sub_I_console.cpp
FNDA:252,_ZN5mongo7ConsoleC2Ev
FNDA:28,_GLOBAL__sub_I_console.cpp
FNDA:28,_Z41__static_initialization_and_destruction_0ii
FNDA:503,_ZN5mongo7Console3outEv
FNF:4
FNH:4
DA:40,28
DA:224,252
DA:225,252
DA:226,251
DA:227,251
DA:229,252
DA:231,503
DA:239,503
DA:242,84
LF:9
LH:9
end_of_record
TN:
SF:/home/tbrock/Code/mongo-cxx-driver/src/mongo/logger/console.h
FNF:0
FNH:0
DA:37,252
LF:1
LH:1
end_of_record
TN:
SF:/home/tbrock/Code/mongo-cxx-driver/src/mongo/logger/console_appender.h
FN:34,_ZN5mongo6logger15ConsoleAppenderINS0_21MessageEventEphemeralENS_7ConsoleEED2Ev
FN:34,_ZN5mongo6logger15ConsoleAppenderINS0_21MessageEventEphemeralENS_7ConsoleEED0Ev
FN:41,_ZN5mongo6logger15ConsoleAppenderINS0_21MessageEventEphemeralENS_7ConsoleEE6appendERKS2_
FNDA:1,_ZN5mongo6logger15ConsoleAppenderINS0_21MessageEventEphemeralENS_7ConsoleEED0Ev
FNDA:251,_ZN5mongo6logger15ConsoleAppenderINS0_21MessageEventEphemeralENS_7ConsoleEE6appendERKS2_
FNDA:0,_ZN5mongo6logger15ConsoleAppenderINS0_21MessageEventEphemeralENS_7ConsoleEED2Ev
FNF:3
FNH:2
DA:34,3
DA:40,56
DA:41,251
DA:42,251
DA:43,502
DA:44,502
DA:45,0
LF:7
LH:6
end_of_record
TN:
SF:/home/tbrock/Code/mongo-cxx-driver/src/mongo/logger/encoder.h
FN:32,_ZN5mongo6logger7EncoderINS0_21MessageEventEphemeralEED0Ev
FN:32,_ZN5mongo6logger7EncoderINS0_21MessageEventEphemeralEED2Ev
FNDA:0,_ZN5mongo6logger7EncoderINS0_21MessageEventEphemeralEED2Ev
FNDA:0,_ZN5mongo6logger7EncoderINS0_21MessageEventEphemeralEED0Ev
FNF:2
FNH:0
DA:30,3
DA:32,4
LF:2
LH:2
end_of_record
TN:
SF:/home/tbrock/Code/mongo-cxx-driver/src/mongo/logger/labeled_level.h
FNF:0
FNH:0
DA:45,0
LF:1
LH:0
end_of_record
TN:
SF:/home/tbrock/Code/mongo-cxx-driver/src/mongo/logger/log_domain-impl.h
FN:33,_ZN5mongo6logger9LogDomainINS0_21MessageEventEphemeralEEC2Ev
FN:38,_ZN5mongo6logger9LogDomainINS0_21MessageEventEphemeralEED2Ev
FN:43,_ZN5mongo6logger9LogDomainINS0_21MessageEventEphemeralEE6appendERKS2_
FN:61,_ZN5mongo6logger9LogDomainINS0_21MessageEventEphemeralEE14attachAppenderESt8auto_ptrINS0_8AppenderIS2_EEE
FN:80,_ZN5mongo6logger9LogDomainINS0_21MessageEventEphemeralEE14detachAppenderENS3_14AppenderHandleE
FN:90,_ZN5mongo6logger9LogDomainINS0_21MessageEventEphemeralEE14clearAppendersEv
FNDA:32,_ZN5mongo6logger9LogDomainINS0_21MessageEventEphemeralEE14attachAppenderESt8auto_ptrINS0_8AppenderIS2_EEE
FNDA:1,_ZN5mongo6logger9LogDomainINS0_21MessageEventEphemeralEED2Ev
FNDA:4,_ZN5mongo6logger9LogDomainINS0_21MessageEventEphemeralEE14clearAppendersEv
FNDA:29,_ZN5mongo6logger9LogDomainINS0_21MessageEventEphemeralEEC2Ev
FNDA:4,_ZN5mongo6logger9LogDomainINS0_21MessageEventEphemeralEE14detachAppenderENS3_14AppenderHandleE
FNDA:257,_ZN5mongo6logger9LogDomainINS0_21MessageEventEphemeralEE6appendERKS2_
FNF:6
FNH:6
DA:33,29
DA:34,58
DA:35,29
DA:38,1
DA:39,1
DA:40,2
DA:43,257
DA:44,1284
DA:45,1026
DA:47,256
DA:48,255
DA:49,255
DA:50,0
DA:51,0
DA:61,32
DA:67,160
DA:69,96
DA:70,32
DA:71,128
DA:74,0
DA:75,0
DA:80,4
DA:83,8
DA:84,4
DA:85,4
DA:86,4
DA:90,4
DA:91,20
DA:92,16
DA:94,4
DA:97,4
DA:98,4
LF:32
LH:28
end_of_record
TN:
SF:/home/tbrock/Code/mongo-cxx-driver/src/mongo/logger/log_domain.h
FN:63,_ZN5mongo6logger9LogDomainINS0_21MessageEventEphemeralEE14AppenderHandleC2Ev
FN:66,_ZN5mongo6logger9LogDomainINS0_21MessageEventEphemeralEE14AppenderHandleC2Em
FN:90,_ZN5mongo6logger9LogDomainINS0_21MessageEventEphemeralEE9shouldLogENS0_11LogSeverityE
FN:95,_ZN5mongo6logger9LogDomainINS0_21MessageEventEphemeralEE21getMinimumLogSeverityEv
FN:100,_ZN5mongo6logger9LogDomainINS0_21MessageEventEphemeralEE24setMinimumLoggedSeverityENS0_11LogSeverityE
FN:105,_ZNK5mongo6logger9LogDomainINS0_21MessageEventEphemeralEE17getAbortOnFailureEv
FN:110,_ZN5mongo6logger9LogDomainINS0_21MessageEventEphemeralEE17setAbortOnFailureEb
FNDA:0,_ZN5mongo6logger9LogDomainINS0_21MessageEventEphemeralEE14AppenderHandleC2Ev
FNDA:0,_ZNK5mongo6logger9LogDomainINS0_21MessageEventEphemeralEE17getAbortOnFailureEv
FNDA:0,_ZN5mongo6logger9LogDomainINS0_21MessageEventEphemeralEE9shouldLogENS0_11LogSeverityE
FNDA:0,_ZN5mongo6logger9LogDomainINS0_21MessageEventEphemeralEE14AppenderHandleC2Em
FNDA:0,_ZN5mongo6logger9LogDomainINS0_21MessageEventEphemeralEE21getMinimumLogSeverityEv
FNDA:0,_ZN5mongo6logger9LogDomainINS0_21MessageEventEphemeralEE17setAbortOnFailureEb
FNDA:0,_ZN5mongo6logger9LogDomainINS0_21MessageEventEphemeralEE24setMinimumLoggedSeverityENS0_11LogSeverityE
FNF:7
FNH:0
DA:63,0
DA:66,0
DA:90,0
DA:95,0
DA:100,0
DA:105,0
DA:110,0
LF:7
LH:0
end_of_record
TN:
SF:/home/tbrock/Code/mongo-cxx-driver/src/mongo/logger/log_manager.cpp
FN:26,_ZN5mongo6logger10LogManagerC2Ev
FN:32,_ZN5mongo6logger10LogManagerD2Ev
FN:38,_ZN5mongo6logger10LogManager14getNamedDomainERKSs
FN:47,_Z41__static_initialization_and_destruction_0ii
FN:47,_GLOBAL__sub_I_log_manager.cpp
FNDA:0,_ZN5mongo6logger10LogManagerD2Ev
FNDA:0,_ZN5mongo6logger10LogManager14getNamedDomainERKSs
FNDA:28,_ZN5mongo6logger10LogManagerC2Ev
FNDA:28,_GLOBAL__sub_I_log_manager.cpp
FNDA:28,_Z41__static_initialization_and_destruction_0ii
FNF:5
FNH:3
DA:26,56
DA:29,112
DA:30,28
DA:32,0
DA:33,0
DA:34,0
DA:36,0
DA:38,0
DA:39,0
DA:40,0
DA:41,0
DA:43,0
DA:47,84
LF:13
LH:4
end_of_record
TN:
SF:/home/tbrock/Code/mongo-cxx-driver/src/mongo/logger/log_severity-inl.h
FNF:0
FNH:0
DA:39,80
LF:1
LH:1
end_of_record
TN:
SF:/home/tbrock/Code/mongo-cxx-driver/src/mongo/logger/log_severity.cpp
FN:34,_ZNK5mongo6logger11LogSeverity12toStringDataEv
FN:50,_ZN5mongo6loggerlsERSoNS0_11LogSeverityE
FN:55,_Z41__static_initialization_and_destruction_0ii
FN:55,_GLOBAL__sub_I_log_severity.cpp
FNDA:13,_ZNK5mongo6logger11LogSeverity12toStringDataEv
FNDA:13,_ZN5mongo6loggerlsERSoNS0_11LogSeverityE
FNDA:28,_Z41__static_initialization_and_destruction_0ii
FNDA:28,_GLOBAL__sub_I_log_severity.cpp
FNF:4
FNH:4
DA:34,13
DA:35,13
DA:36,0
DA:37,13
DA:38,0
DA:39,13
DA:40,0
DA:41,13
DA:42,13
DA:43,0
DA:44,0
DA:45,0
DA:46,0
DA:47,0
DA:50,13
DA:51,13
DA:55,84
LF:17
LH:9
end_of_record
TN:
SF:/home/tbrock/Code/mongo-cxx-driver/src/mongo/logger/logger.cpp
FN:29,_Z41__static_initialization_and_destruction_0ii
FN:31,_ZN5mongo6logger16globalLogManagerEv
FN:38,_ZN5mongo6logger26globalRotatableFileManagerEv
FN:46,_ZN5mongo6logger42_mongoInitializerFunction_GlobalLogManagerEPNS_18InitializerContextE
FN:56,_ZN5mongo45_mongoInitializerFunctionAssure_logger_loggerEv
FN:56,_GLOBAL__sub_I_logger.cpp
FNDA:28,_GLOBAL__sub_I_logger.cpp
FNDA:28,_ZN5mongo6logger42_mongoInitializerFunction_GlobalLogManagerEPNS_18InitializerContextE
FNDA:1124,_ZN5mongo6logger16globalLogManagerEv
FNDA:0,_ZN5mongo6logger26globalRotatableFileManagerEv
FNDA:28,_Z41__static_initialization_and_destruction_0ii
FNDA:0,_ZN5mongo45_mongoInitializerFunctionAssure_logger_loggerEv
FNF:6
FNH:4
DA:29,28
DA:31,1124
DA:32,1124
DA:33,28
DA:35,1124
DA:38,0
DA:39,0
DA:46,140
DA:49,28
DA:50,28
DA:56,84
LF:11
LH:9
end_of_record
TN:
SF:/home/tbrock/Code/mongo-cxx-driver/src/mongo/logger/logger.h
FNF:0
FNH:0
DA:39,1096
LF:1
LH:1
end_of_record
TN:
SF:/home/tbrock/Code/mongo-cxx-driver/src/mongo/logger/logstream_builder.cpp
FN:43,_Z41__static_initialization_and_destruction_0ii
FN:43,_ZN5mongo12_GLOBAL__N_142_mongoInitializerFunction_LogstreamBuilderEPNS_18InitializerContextE
FN:50,_ZN5mongo6logger16LogstreamBuilderD2Ev
FN:50,_ZN5mongo6logger16LogstreamBuilder10makeStreamEv
FN:51,_ZN5mongo3TSPINS_18OwnedPointerVectorISt19basic_ostringstreamIcSt11char_traitsIcESaIcEEEEE5resetEPS7_
FN:55,_ZN5mongo6logger16LogstreamBuilderC2EPNS0_9LogDomainINS0_21MessageEventEphemeralEEERKSsNS0_11LogSeverityE
FN:65,_ZN5mongo6logger16LogstreamBuilderC2EPNS0_9LogDomainINS0_21MessageEventEphemeralEEERKSsNS0_12LabeledLevelE
FN:77,_ZN5mongo6logger16LogstreamBuilderC2ERKS1_
FN:112,_ZN5mongo6logger16LogstreamBuilderlsEPNS0_3TeeE
FN:136,_ZN5mongo56_mongoInitializerFunctionAssure_logger_logstream_builderEv
FN:136,_GLOBAL__sub_I_logstream_builder.cpp
FNDA:28,_Z41__static_initialization_and_destruction_0ii
FNDA:255,_ZN5mongo6logger16LogstreamBuilderD2Ev
FNDA:0,_ZN5mongo6logger16LogstreamBuilderlsEPNS0_3TeeE
FNDA:28,_ZN5mongo12_GLOBAL__N_142_mongoInitializerFunction_LogstreamBuilderEPNS_18InitializerContextE
FNDA:0,_ZN5mongo56_mongoInitializerFunctionAssure_logger_logstream_builderEv
FNDA:1,_ZN5mongo6logger16LogstreamBuilderC2ERKS1_
FNDA:0,_ZN5mongo6logger16LogstreamBuilderC2EPNS0_9LogDomainINS0_21MessageEventEphemeralEEERKSsNS0_12LabeledLevelE
FNDA:254,_ZN5mongo6logger16LogstreamBuilderC2EPNS0_9LogDomainINS0_21MessageEventEphemeralEEERKSsNS0_11LogSeverityE
FNDA:28,_GLOBAL__sub_I_logstream_builder.cpp
FNDA:10,_ZN5mongo3TSPINS_18OwnedPointerVectorISt19basic_ostringstreamIcSt11char_traitsIcESaIcEEEEE5resetEPS7_
FNDA:1241,_ZN5mongo6logger16LogstreamBuilder10makeStreamEv
FNF:11
FNH:8
DA:43,140
DA:44,28
DA:45,28
DA:50,1000
DA:51,38
DA:55,254
DA:62,508
DA:63,254
DA:65,0
DA:67,0
DA:72,0
DA:74,0
DA:75,0
DA:77,1
DA:83,1
DA:85,1
DA:86,0
DA:87,1
DA:90,765
DA:91,255
DA:92,508
DA:93,762
DA:94,762
DA:95,508
DA:96,254
DA:97,0
DA:99,0
DA:100,0
DA:102,508
DA:103,507
DA:104,504
DA:107,2
DA:110,255
DA:112,0
DA:113,0
DA:115,0
DA:116,0
DA:118,1241
DA:119,1241
DA:120,507
DA:121,253
DA:123,484
DA:124,242
DA:125,242
DA:128,12
DA:131,1241
DA:136,84
LF:47
LH:34
end_of_record
TN:
SF:/home/tbrock/Code/mongo-cxx-driver/src/mongo/logger/logstream_builder.h
FN:83,_ZN5mongo6logger16LogstreamBuilderlsEPFRSt8ios_baseS3_E
FN:83,_ZN5mongo6logger16LogstreamBuilderlsERKSs
FN:83,_ZN5mongo6logger16LogstreamBuilderlsEc
FN:83,_ZN5mongo6logger16LogstreamBuilderlsINS_12_GLOBAL__N_11AEEERS1_RKT_.isra.26
FN:83,_ZN5mongo6logger16LogstreamBuilderlsINS_11HostAndPortEEERS1_RKT_
FN:83,_ZN5mongo6logger16LogstreamBuilderlsINS_6StatusEEERS1_RKT_
FN:83,_ZN5mongo6logger16LogstreamBuilderlsINS_15SocketExceptionEEERS1_RKT_
FN:83,_ZN5mongo6logger16LogstreamBuilderlsINS_7BSONObjEEERS1_RKT_
FNDA:1,_ZN5mongo6logger16LogstreamBuilderlsINS_15SocketExceptionEEERS1_RKT_
FNDA:0,_ZN5mongo6logger16LogstreamBuilderlsINS_6StatusEEERS1_RKT_
FNDA:48,_ZN5mongo6logger16LogstreamBuilderlsINS_11HostAndPortEEERS1_RKT_
FNDA:1,_ZN5mongo6logger16LogstreamBuilderlsINS_12_GLOBAL__N_11AEEERS1_RKT_.isra.26
FNDA:0,_ZN5mongo6logger16LogstreamBuilderlsINS_11BSONElementEEERS1_RKT_
FNDA:0,_ZN5mongo6logger16LogstreamBuilderlsINS_7BSONObjEEERS1_RKT_
FNDA:0,_ZN5mongo6logger16LogstreamBuilderlsEPFRSt8ios_baseS3_E
FNDA:26,_ZN5mongo6logger16LogstreamBuilderlsEc
FNDA:398,_ZN5mongo6logger16LogstreamBuilderlsERKSs
FNF:9
FNH:5
DA:79,1
DA:83,1239
DA:85,528
DA:86,1194
DA:87,28
DA:89,78
DA:90,21
DA:91,1
DA:92,6
DA:93,0
DA:98,2
DA:103,50
DA:104,150
DA:105,50
DA:109,181
DA:112,0
DA:113,0
DA:114,0
LF:18
LH:14
end_of_record
TN:
SF:/home/tbrock/Code/mongo-cxx-driver/src/mongo/logger/message_event.h
FNF:0
FNH:0
DA:42,257
DA:44,251
LF:2
LH:2
end_of_record
TN:
SF:/home/tbrock/Code/mongo-cxx-driver/src/mongo/logger/message_event_utf8_encoder.cpp
FN:29,_ZN5mongo6logger26MessageEventDetailsEncoder16setDateFormatterEPFSsNS_6Date_tEE
FN:33,_ZN5mongo6logger26MessageEventDetailsEncoder16getDateFormatterEv
FN:37,_ZN5mongo6logger26MessageEventDetailsEncoderD0Ev
FN:37,_ZN5mongo6logger26MessageEventDetailsEncoderD2Ev
FN:38,_ZN5mongo6logger26MessageEventDetailsEncoder6encodeERKNS0_21MessageEventEphemeralERSo
FN:70,_ZN5mongo6logger30MessageEventWithContextEncoderD0Ev
FN:70,_ZN5mongo6logger30MessageEventWithContextEncoderD2Ev
FN:71,_ZN5mongo6logger30MessageEventWithContextEncoder6encodeERKNS0_21MessageEventEphemeralERSo
FN:84,_ZN5mongo6logger28MessageEventUnadornedEncoderD2Ev
FN:84,_ZN5mongo6logger28MessageEventUnadornedEncoderD0Ev
FN:85,_ZN5mongo6logger28MessageEventUnadornedEncoder6encodeERKNS0_21MessageEventEphemeralERSo
FN:95,_GLOBAL__sub_I_message_event_utf8_encoder.cpp
FN:95,_Z41__static_initialization_and_destruction_0ii
FNDA:1,_ZN5mongo6logger26MessageEventDetailsEncoderD2Ev
FNDA:28,_Z41__static_initialization_and_destruction_0ii
FNDA:0,_ZN5mongo6logger26MessageEventDetailsEncoder16setDateFormatterEPFSsNS_6Date_tEE
FNDA:0,_ZN5mongo6logger28MessageEventUnadornedEncoderD0Ev
FNDA:0,_ZN5mongo6logger30MessageEventWithContextEncoder6encodeERKNS0_21MessageEventEphemeralERSo
FNDA:0,_ZN5mongo6logger30MessageEventWithContextEncoderD2Ev
FNDA:0,_ZN5mongo6logger30MessageEventWithContextEncoderD0Ev
FNDA:0,_ZN5mongo6logger26MessageEventDetailsEncoder16getDateFormatterEv
FNDA:28,_GLOBAL__sub_I_message_event_utf8_encoder.cpp
FNDA:3,_ZN5mongo6logger28MessageEventUnadornedEncoder6encodeERKNS0_21MessageEventEphemeralERSo
FNDA:251,_ZN5mongo6logger26MessageEventDetailsEncoder6encodeERKNS0_21MessageEventEphemeralERSo
FNDA:1,_ZN5mongo6logger26MessageEventDetailsEncoderD0Ev
FNDA:3,_ZN5mongo6logger28MessageEventUnadornedEncoderD2Ev
FNF:13
FNH:7
DA:29,0
DA:30,0
DA:31,0
DA:33,0
DA:34,0
DA:37,3
DA:38,251
DA:43,1255
DA:44,251
DA:45,251
DA:46,1
DA:49,251
DA:50,251
DA:51,13
DA:54,251
DA:55,251
DA:56,0
DA:57,0
DA:58,0
DA:59,0
DA:60,0
DA:63,251
DA:65,251
DA:67,251
DA:70,0
DA:71,0
DA:73,0
DA:74,0
DA:75,0
DA:77,0
DA:78,0
DA:79,0
DA:81,0
DA:84,6
DA:85,3
DA:87,3
DA:88,3
DA:89,3
DA:91,3
DA:95,84
LF:40
LH:21
end_of_record
TN:
SF:/home/tbrock/Code/mongo-cxx-driver/src/mongo/logger/message_event_utf8_encoder.h
FNF:0
FNH:0
DA:30,28
DA:66,6
LF:2
LH:2
end_of_record
TN:
SF:/home/tbrock/Code/mongo-cxx-driver/src/mongo/logger/message_log_domain.cpp
FN:28,_Z41__static_initialization_and_destruction_0ii
FN:28,_GLOBAL__sub_I_message_log_domain.cpp
FNDA:28,_GLOBAL__sub_I_message_log_domain.cpp
FNDA:28,_Z41__static_initialization_and_destruction_0ii
FNF:2
FNH:2
DA:28,84
LF:1
LH:1
end_of_record
TN:
SF:/home/tbrock/Code/mongo-cxx-driver/src/mongo/logger/ramlog.cpp
FN:43,_ZN5mongo6RamLogC2ERKSs
FN:50,_ZN5mongo6RamLogD2Ev
FN:50,_ZN5mongo6RamLogD0Ev
FN:52,_ZN5mongo6RamLog5writeERKSs
FN:77,_ZN5mongo6RamLog12LineIterator9lastWriteEv
FN:81,_ZN5mongo6RamLog12LineIterator20getTotalLinesWrittenEv
FN:85,_ZNK5mongo6RamLog14getLine_inlockEj
FN:91,_ZN5mongo6RamLog7repeatsERKSt6vectorIPKcSaIS3_EEi
FN:106,_ZN5mongo6RamLog5cleanERKSt6vectorIPKcSaIS3_EEiSs
FN:113,_ZN5mongo6RamLog5colorERKSs
FN:129,_ZN5mongo6RamLog7linkifyEPKc
FN:143,_ZN5mongo6RamLog6toHTMLERSt18basic_stringstreamIcSt11char_traitsIcESaIcEE
FN:176,_ZN5mongo6RamLog12LineIteratorC2EPS0_
FN:182,_ZN5mongo14RamLogAppenderC2EPNS_6RamLogE
FN:183,_ZN5mongo14RamLogAppenderD2Ev
FN:183,_ZN5mongo14RamLogAppenderD0Ev
FN:185,_ZN5mongo14RamLogAppender6appendERKNS_6logger21MessageEventEphemeralE
FN:197,_ZN5mongo6RamLog3getERKSs
FN:217,_ZN5mongo6RamLog11getIfExistsERKSs
FN:224,_ZN5mongo6RamLog8getNamesERSt6vectorISsSaISsEE
FN:239,_ZN5mongo39_mongoInitializerFunction_RamLogCatalogEPNS_18InitializerContextE
FN:239,_Z41__static_initialization_and_destruction_0ii
FN:253,_GLOBAL__sub_I_ramlog.cpp
FN:253,_ZN5mongo45_mongoInitializerFunctionAssure_logger_ramlogEv
FNDA:0,_ZN5mongo14RamLogAppenderC2EPNS_6RamLogE
FNDA:28,_Z41__static_initialization_and_destruction_0ii
FNDA:0,_ZN5mongo6RamLog7repeatsERKSt6vectorIPKcSaIS3_EEi
FNDA:0,_ZN5mongo45_mongoInitializerFunctionAssure_logger_ramlogEv
FNDA:0,_ZN5mongo6RamLog7linkifyEPKc
FNDA:56,_ZN5mongo6RamLog3getERKSs
FNDA:0,_ZN5mongo6RamLog11getIfExistsERKSs
FNDA:0,_ZN5mongo6RamLog12LineIterator20getTotalLinesWrittenEv
FNDA:0,_ZN5mongo14RamLogAppenderD0Ev
FNDA:0,_ZN5mongo6RamLog6toHTMLERSt18basic_stringstreamIcSt11char_traitsIcESaIcEE
FNDA:0,_ZN5mongo6RamLog12LineIteratorC2EPS0_
FNDA:0,_ZN5mongo6RamLogD0Ev
FNDA:0,_ZN5mongo6RamLog12LineIterator9lastWriteEv
FNDA:0,_ZN5mongo6RamLogD2Ev
FNDA:0,_ZN5mongo6RamLog5writeERKSs
FNDA:0,_ZN5mongo14RamLogAppenderD2Ev
FNDA:56,_ZN5mongo6RamLogC2ERKSs
FNDA:28,_ZN5mongo39_mongoInitializerFunction_RamLogCatalogEPNS_18InitializerContextE
FNDA:0,_ZN5mongo6RamLog5cleanERKSt6vectorIPKcSaIS3_EEiSs
FNDA:0,_ZNK5mongo6RamLog14getLine_inlockEj
FNDA:28,_GLOBAL__sub_I_ramlog.cpp
FNDA:0,_ZN5mongo6RamLog8getNamesERSt6vectorISsSaISsEE
FNDA:0,_ZN5mongo14RamLogAppender6appendERKNS_6logger21MessageEventEphemeralE
FNDA:0,_ZN5mongo6RamLog5colorERKSs
FNF:24
FNH:5
DA:43,112
DA:44,56
DA:45,56
DA:46,57400
DA:47,57344
DA:48,56
DA:50,0
DA:52,0
DA:53,0
DA:54,0
DA:55,0
DA:57,0
DA:59,0
DA:60,0
DA:61,0
DA:62,0
DA:63,0
DA:64,0
DA:67,0
DA:70,0
DA:73,0
DA:74,0
DA:77,0
DA:78,0
DA:81,0
DA:82,0
DA:85,0
DA:86,0
DA:88,0
DA:91,0
DA:92,0
DA:93,0
DA:94,0
DA:95,0
DA:96,0
DA:97,0
DA:98,0
DA:106,0
DA:107,0
DA:108,0
DA:109,0
DA:110,0
DA:113,0
DA:114,0
DA:115,0
DA:116,0
DA:117,0
DA:118,0
DA:119,0
DA:120,0
DA:121,0
DA:122,0
DA:125,0
DA:129,0
DA:130,0
DA:131,0
DA:132,0
DA:134,0
DA:135,0
DA:137,0
DA:138,0
DA:139,0
DA:143,0
DA:144,0
DA:146,0
DA:147,0
DA:149,0
DA:150,0
DA:151,0
DA:152,0
DA:153,0
DA:154,0
DA:157,0
DA:158,0
DA:159,0
DA:160,0
DA:161,0
DA:163,0
DA:164,0
DA:165,0
DA:166,0
DA:169,0
DA:170,0
DA:173,0
DA:174,0
DA:176,0
DA:179,0
DA:180,0
DA:182,0
DA:183,0
DA:185,0
DA:186,0
DA:187,0
DA:188,0
DA:189,0
DA:190,0
DA:197,56
DA:198,56
DA:200,28
DA:203,56
DA:204,56
DA:206,56
DA:209,112
DA:210,56
DA:211,56
DA:212,56
DA:214,112
DA:217,0
DA:218,0
DA:220,0
DA:221,0
DA:224,0
DA:225,0
DA:226,0
DA:228,0
DA:229,0
DA:230,0
DA:231,0
DA:239,140
DA:240,28
DA:241,0
DA:243,0
DA:245,0
DA:246,0
DA:253,84
LF:125
LH:20
end_of_record
TN:
SF:/home/tbrock/Code/mongo-cxx-driver/src/mongo/logger/ramlog.h
FNF:0
FNH:0
DA:130,0
DA:138,0
DA:144,0
LF:3
LH:0
end_of_record
TN:
SF:/home/tbrock/Code/mongo-cxx-driver/src/mongo/logger/rotatable_file_manager.cpp
FN:26,_ZN5mongo6logger20RotatableFileManagerC2Ev
FN:28,_ZN5mongo6logger20RotatableFileManagerD2Ev
FN:34,_ZN5mongo6logger20RotatableFileManager8openFileERKSsb
FN:49,_ZN5mongo6logger20RotatableFileManager7getFileERKSs
FN:53,_ZN5mongo6logger20RotatableFileManager9rotateAllERKSs
FN:70,_GLOBAL__sub_I_rotatable_file_manager.cpp
FN:70,_Z41__static_initialization_and_destruction_0ii
FNDA:28,_ZN5mongo6logger20RotatableFileManagerD2Ev
FNDA:28,_GLOBAL__sub_I_rotatable_file_manager.cpp
FNDA:28,_ZN5mongo6logger20RotatableFileManagerC2Ev
FNDA:0,_ZN5mongo6logger20RotatableFileManager8openFileERKSsb
FNDA:0,_ZN5mongo6logger20RotatableFileManager7getFileERKSs
FNDA:28,_Z41__static_initialization_and_destruction_0ii
FNDA:0,_ZN5mongo6logger20RotatableFileManager9rotateAllERKSs
FNF:7
FNH:4
DA:26,56
DA:28,56
DA:29,112
DA:30,0
DA:32,28
DA:34,0
DA:36,0
DA:38,0
DA:40,0
DA:41,0
DA:42,0
DA:43,0
DA:45,0
DA:46,0
DA:49,0
DA:50,0
DA:53,0
DA:57,0
DA:58,0
DA:60,0
DA:61,0
DA:62,0
DA:63,0
DA:66,0
DA:70,84
LF:25
LH:5
end_of_record
TN:
SF:/home/tbrock/Code/mongo-cxx-driver/src/mongo/logger/rotatable_file_writer.cpp
FN:193,_ZN5mongo6logger19RotatableFileWriter3Use6rotateERKSs
FN:199,_ZN5mongo6logger19RotatableFileWriterC2Ev
FN:201,_ZN5mongo6logger19RotatableFileWriter3UseC2EPS1_
FN:206,_ZN5mongo6logger19RotatableFileWriter3Use11setFileNameERKSsb
FN:225,_ZN5mongo6logger19RotatableFileWriter3Use6statusEv
FN:239,_ZN5mongo6logger19RotatableFileWriter3Use15_openFileStreamEb
FN:265,_Z41__static_initialization_and_destruction_0ii
FN:265,_GLOBAL__sub_I_rotatable_file_writer.cpp
FNDA:3,_ZN5mongo6logger19RotatableFileWriter3UseC2EPS1_
FNDA:4,_ZN5mongo6logger19RotatableFileWriter3Use6statusEv
FNDA:28,_Z41__static_initialization_and_destruction_0ii
FNDA:4,_ZN5mongo6logger19RotatableFileWriter3Use15_openFileStreamEb
FNDA:28,_GLOBAL__sub_I_rotatable_file_writer.cpp
FNDA:3,_ZN5mongo6logger19RotatableFileWriter3Use11setFileNameERKSsb
FNDA:1,_ZN5mongo6logger19RotatableFileWriter3Use6rotateERKSs
FNDA:3,_ZN5mongo6logger19RotatableFileWriterC2Ev
FNF:8
FNH:8
DA:193,2
DA:199,9
DA:201,3
DA:203,3
DA:204,3
DA:206,3
DA:207,3
DA:208,3
DA:211,1
DA:212,2
DA:213,2
DA:214,2
DA:216,0
DA:217,0
DA:222,1
DA:225,4
DA:226,8
DA:228,0
DA:229,0
DA:231,12
DA:233,0
DA:234,0
DA:239,4
DA:246,4
DA:247,4
DA:254,8
DA:257,8
DA:258,0
DA:260,4
DA:261,4
DA:265,84
LF:31
LH:24
end_of_record
TN:
SF:/home/tbrock/Code/mongo-cxx-driver/src/mongo/logger/rotatable_file_writer.h
FN:41,_ZN5mongo6logger19RotatableFileWriterD2Ev
FNDA:3,_ZN5mongo6logger19RotatableFileWriterD2Ev
FNF:1
FNH:1
DA:41,9
DA:47,3
DA:89,7
LF:3
LH:3
end_of_record
TN:
SF:/home/tbrock/Code/mongo-cxx-driver/src/mongo/logger/tee.h
FN:25,_ZN5mongo6logger3TeeD0Ev
FN:25,_ZN5mongo6logger3TeeD2Ev
FNDA:0,_ZN5mongo6logger3TeeD2Ev
FNDA:0,_ZN5mongo6logger3TeeD0Ev
FNF:2
FNH:0
DA:23,56
DA:25,0
LF:2
LH:1
end_of_record
TN:
SF:/home/tbrock/Code/mongo-cxx-driver/src/mongo/platform/atomic_intrinsics_gcc_intel.h
FNF:0
FNH:0
DA:45,47
DA:51,8
DA:57,8
DA:63,181
DA:64,181
DA:73,50
DA:74,50
DA:75,50
DA:80,57848
DA:85,57848
LF:10
LH:10
end_of_record
TN:
SF:/home/tbrock/Code/mongo-cxx-driver/src/mongo/platform/atomic_word.h
FNF:0
FNH:0
DA:55,8050
DA:62,181
DA:69,100484
DA:76,50
DA:86,8
DA:98,47
DA:109,57848
DA:120,18771
DA:131,13
DA:142,18758
LF:10
LH:10
end_of_record
TN:
SF:/home/tbrock/Code/mongo-cxx-driver/src/mongo/platform/float_utils.h
FN:25,_ZN5mongo5isInfEdPi
FNDA:4,_ZN5mongo5isInfEdPi
FNF:1
FNH:1
DA:22,1
DA:25,4
DA:26,4
DA:28,4
DA:29,4
DA:30,2
DA:35,0
DA:36,0
LF:8
LH:6
end_of_record
TN:
SF:/home/tbrock/Code/mongo-cxx-driver/src/mongo/platform/process_id.cpp
FN:33,_ZN5mongo9ProcessId10getCurrentEv
FN:41,_ZNK5mongo9ProcessId7asInt64Ev
FN:49,_ZNK5mongo9ProcessId10asLongLongEv
FN:53,_ZNK5mongo9ProcessId8toStringEv
FN:59,_ZN5mongolsERSoNS_9ProcessIdE
FN:63,_GLOBAL__sub_I_process_id.cpp
FN:63,_Z41__static_initialization_and_destruction_0ii
FNDA:30,_ZN5mongo9ProcessId10getCurrentEv
FNDA:28,_GLOBAL__sub_I_process_id.cpp
FNDA:28,_Z41__static_initialization_and_destruction_0ii
FNDA:0,_ZN5mongolsERSoNS_9ProcessIdE
FNDA:0,_ZNK5mongo9ProcessId10asLongLongEv
FNDA:0,_ZNK5mongo9ProcessId8toStringEv
FNDA:0,_ZNK5mongo9ProcessId7asInt64Ev
FNF:7
FNH:3
DA:33,30
DA:37,30
DA:38,30
DA:41,0
DA:44,0
DA:49,0
DA:50,0
DA:53,0
DA:54,0
DA:55,0
DA:56,0
DA:59,0
DA:60,0
DA:63,84
LF:14
LH:4
end_of_record
TN:
SF:/home/tbrock/Code/mongo-cxx-driver/src/mongo/platform/process_id.h
FNF:0
FNH:0
DA:82,28
DA:89,1
LF:2
LH:2
end_of_record
TN:
SF:/home/tbrock/Code/mongo-cxx-driver/src/mongo/platform/random.cpp
FN:38,_ZN5mongo12PseudoRandom9nextInt32Ev
FN:52,_ZN5mongo12PseudoRandomC2Ei
FN:60,_ZN5mongo12PseudoRandomC2Ej
FN:68,_ZN5mongo12PseudoRandomC2El
FN:78,_ZN5mongo12PseudoRandom9nextInt64Ev
FN:86,_ZN5mongo12SecureRandomD2Ev
FN:86,_ZN5mongo12SecureRandomD0Ev
FN:112,_ZN5mongo23InputStreamSecureRandomC2EPKc
FN:120,_ZN5mongo23InputStreamSecureRandomD2Ev
FN:120,_ZN5mongo23InputStreamSecureRandomD0Ev
FN:124,_ZN5mongo23InputStreamSecureRandom9nextInt64Ev
FN:137,_ZN5mongo12SecureRandom6createEv
FN:163,_GLOBAL__sub_I_random.cpp
FN:163,_Z41__static_initialization_and_destruction_0ii
FNDA:430,_ZN5mongo12PseudoRandom9nextInt64Ev
FNDA:28,_GLOBAL__sub_I_random.cpp
FNDA:10,_ZN5mongo12PseudoRandomC2Ei
FNDA:33,_ZN5mongo23InputStreamSecureRandomD2Ev
FNDA:231,_ZN5mongo23InputStreamSecureRandom9nextInt64Ev
FNDA:33,_ZN5mongo23InputStreamSecureRandomC2EPKc
FNDA:0,_ZN5mongo12PseudoRandomC2Ej
FNDA:1239326,_ZN5mongo12PseudoRandom9nextInt32Ev
FNDA:33,_ZN5mongo12SecureRandomD2Ev
FNDA:33,_ZN5mongo12SecureRandom6createEv
FNDA:33,_ZN5mongo23InputStreamSecureRandomD0Ev
FNDA:143,_ZN5mongo12PseudoRandomC2El
FNDA:28,_Z41__static_initialization_and_destruction_0ii
FNDA:0,_ZN5mongo12SecureRandomD0Ev
FNF:14
FNH:12
DA:38,1239326
DA:39,1239326
DA:40,1239326
DA:41,1239326
DA:42,1239326
DA:43,1239326
DA:52,10
DA:53,10
DA:54,10
DA:55,10
DA:56,10
DA:57,10
DA:60,0
DA:61,0
DA:62,0
DA:63,0
DA:64,0
DA:65,0
DA:68,143
DA:69,143
DA:70,143
DA:72,143
DA:73,143
DA:74,143
DA:75,143
DA:76,143
DA:78,430
DA:79,430
DA:80,430
DA:81,430
DA:86,33
DA:87,33
DA:112,66
DA:113,33
DA:114,66
DA:115,0
DA:116,0
DA:118,33
DA:120,99
DA:121,33
DA:122,66
DA:124,231
DA:126,231
DA:127,462
DA:128,0
DA:130,231
DA:137,33
DA:138,33
DA:163,84
LF:49
LH:40
end_of_record
TN:
SF:/home/tbrock/Code/mongo-cxx-driver/src/mongo/platform/random.h
FNF:0
FNH:0
DA:42,1237964
DA:47,130
DA:72,33
LF:3
LH:3
end_of_record
TN:
SF:/home/tbrock/Code/mongo-cxx-driver/src/mongo/util/assert_util.cpp
FN:33,_ZNK5mongo11DBException8toStringEv
FN:39,_ZN5mongo11DBException20convertExceptionCodeEi
FN:44,_ZNK5mongo13ExceptionInfo6appendERNS_14BSONObjBuilderEPKcS4_
FN:55,_ZN5mongo9wassertedEPKcS1_j
FN:78,_ZN5mongo12verifyFailedEPKcS1_j
FN:92,_ZN5mongo15invariantFailedEPKcS1_j
FN:99,_ZN5mongo13fassertFailedEi
FN:106,_ZN5mongo23fassertFailedWithStatusEiRKNS_6StatusE
FN:113,_ZN5mongo9uassertedEiRKSs
FN:117,_ZNK5mongo13UserException12appendPrefixERSt18basic_stringstreamIcSt11char_traitsIcESaIcEE
FN:118,_ZNK5mongo21MsgAssertionException12appendPrefixERSt18basic_stringstreamIcSt11char_traitsIcESaIcEE
FN:120,_ZN5mongo9uassertedEiPKc
FN:125,_ZN5mongo11msgassertedEiRKSs
FN:129,_ZN5mongo11msgassertedEiPKc
FN:135,_ZN5mongo18msgassertedNoTraceEiPKc
FN:140,_ZN5mongo18msgassertedNoTraceEiRKSs
FN:144,_ZN5mongo8causedByEPKc
FN:148,_ZN5mongo8causedByERKNS_11DBExceptionE
FN:152,_ZN5mongo8causedByERKSt9exception
FN:156,_ZN5mongo8causedByERKSs
FN:160,_ZN5mongo8causedByEPKSs
FN:164,_ZN5mongo8causedByERKNS_6StatusE
FN:168,_ZN5mongo13streamNotGoodEiRKSsRSt9basic_iosIcSt11char_traitsIcEE
FN:176,_ZN5mongo15errnoWithPrefixEPKc
FN:184,_ZN5mongo12demangleNameERKSt9type_info
FN:200,_ZNK5mongo13ExceptionInfo8toStringEv
FN:204,_ZN5mongo8ErrorMsgC2EPKcc
FN:213,_ZN5mongo8ErrorMsgC2EPKcj
FN:221,_GLOBAL__sub_I_assert_util.cpp
FN:221,_Z41__static_initialization_and_destruction_0ii
FNDA:0,_ZN5mongo8ErrorMsgC2EPKcj
FNDA:0,_ZN5mongo8causedByERKNS_6StatusE
FNDA:0,_ZNK5mongo11DBException8toStringEv
FNDA:28,_Z41__static_initialization_and_destruction_0ii
FNDA:0,_ZNK5mongo21MsgAssertionException12appendPrefixERSt18basic_stringstreamIcSt11char_traitsIcESaIcEE
FNDA:0,_ZNK5mongo13UserException12appendPrefixERSt18basic_stringstreamIcSt11char_traitsIcESaIcEE
FNDA:0,_ZNK5mongo13ExceptionInfo6appendERNS_14BSONObjBuilderEPKcS4_
FNDA:0,_ZN5mongo8causedByEPKc
FNDA:5,_ZN5mongo11msgassertedEiPKc
FNDA:0,_ZN5mongo13streamNotGoodEiRKSsRSt9basic_iosIcSt11char_traitsIcEE
FNDA:0,_ZN5mongo18msgassertedNoTraceEiPKc
FNDA:0,_ZN5mongo8causedByERKNS_11DBExceptionE
FNDA:0,_ZNK5mongo13ExceptionInfo8toStringEv
FNDA:0,_ZN5mongo18msgassertedNoTraceEiRKSs
FNDA:30,_ZN5mongo9uassertedEiPKc
FNDA:0,_ZN5mongo8causedByERKSt9exception
FNDA:0,_ZN5mongo12verifyFailedEPKcS1_j
FNDA:1,_ZN5mongo11msgassertedEiRKSs
FNDA:0,_ZN5mongo9wassertedEPKcS1_j
FNDA:28,_GLOBAL__sub_I_assert_util.cpp
FNDA:0,_ZN5mongo8ErrorMsgC2EPKcc
FNDA:0,_ZN5mongo12demangleNameERKSt9type_info
FNDA:0,_ZN5mongo8causedByEPKSs
FNDA:0,_ZN5mongo23fassertFailedWithStatusEiRKNS_6StatusE
FNDA:0,_ZN5mongo15errnoWithPrefixEPKc
FNDA:0,_ZN5mongo13fassertFailedEi
FNDA:30,_ZN5mongo9uassertedEiRKSs
FNDA:0,_ZN5mongo8causedByERKSs
FNDA:0,_ZN5mongo11DBException20convertExceptionCodeEi
FNDA:0,_ZN5mongo15invariantFailedEPKcS1_j
FNF:30
FNH:6
DA:33,0
DA:34,0
DA:35,0
DA:36,0
DA:39,0
DA:40,0
DA:41,0
DA:44,0
DA:45,0
DA:46,0
DA:48,0
DA:50,0
DA:51,0
DA:52,0
DA:55,0
DA:59,0
DA:60,0
DA:61,0
DA:62,0
DA:64,0
DA:66,0
DA:67,0
DA:69,0
DA:70,0
DA:78,0
DA:79,0
DA:80,0
DA:81,0
DA:82,0
DA:83,0
DA:89,0
DA:92,0
DA:93,0
DA:94,0
DA:95,0
DA:96,0
DA:99,0
DA:100,0
DA:101,0
DA:102,0
DA:103,0
DA:106,0
DA:107,0
DA:108,0
DA:109,0
DA:110,0
DA:113,30
DA:114,30
DA:117,0
DA:118,0
DA:120,30
DA:121,30
DA:122,60
DA:125,1
DA:126,1
DA:129,5
DA:130,30
DA:131,5
DA:132,10
DA:135,0
DA:136,0
DA:137,0
DA:140,0
DA:141,0
DA:144,0
DA:145,0
DA:148,0
DA:149,0
DA:152,0
DA:153,0
DA:156,0
DA:157,0
DA:160,0
DA:161,0
DA:164,0
DA:165,0
DA:168,0
DA:169,0
DA:172,0
DA:173,0
DA:176,0
DA:177,0
DA:178,0
DA:179,0
DA:180,0
DA:181,0
DA:184,0
DA:190,0
DA:191,0
DA:192,0
DA:194,0
DA:195,0
DA:196,0
DA:200,0
DA:201,0
DA:204,0
DA:205,0
DA:206,0
DA:207,0
DA:208,0
DA:209,0
DA:210,0
DA:211,0
DA:213,0
DA:214,0
DA:215,0
DA:216,0
DA:217,0
DA:218,0
DA:219,0
DA:221,84
LF:111
LH:12
end_of_record
TN:
SF:/home/tbrock/Code/mongo-cxx-driver/src/mongo/util/assert_util.h
FN:45,_ZN5mongo11DBExceptionC2ERKS0_
FN:45,_ZN5mongo11DBExceptionD2Ev
FN:48,_ZN5mongo11DBExceptionC2EPKci
FN:51,_ZN5mongo11DBExceptionC2ERKSsi
FN:86,_ZN5mongo11DBExceptionD0Ev
FN:88,_ZNK5mongo11DBException4whatEv
FN:89,_ZNK5mongo11DBException7getCodeEv
FN:90,_ZNK5mongo11DBException12appendPrefixERSt18basic_stringstreamIcSt11char_traitsIcESaIcEE
FN:91,_ZN5mongo11DBException10addContextERKSs
FN:98,_ZNK5mongo11DBException8toStatusERKSs
FN:101,_ZNK5mongo11DBException8toStatusEv
FN:123,_ZN5mongo18AssertionExceptionD0Ev
FN:123,_ZN5mongo21MsgAssertionExceptionD0Ev
FN:123,_ZN5mongo13UserExceptionD0Ev
FN:123,_ZN5mongo21MsgAssertionExceptionD2Ev
FN:123,_ZN5mongo18AssertionExceptionD2Ev
FN:123,_ZN5mongo13UserExceptionD2Ev
FN:125,_ZNK5mongo18AssertionException6severeEv
FN:126,_ZNK5mongo18AssertionException15isUserAssertionEv
FN:133,_ZNK5mongo13UserException6severeEv
FN:134,_ZNK5mongo13UserException15isUserAssertionEv
FN:142,_ZNK5mongo21MsgAssertionException6severeEv
FNDA:114,_ZN5mongo21MsgAssertionExceptionD2Ev
FNDA:0,_ZNK5mongo18AssertionException6severeEv
FNDA:0,_ZNK5mongo21MsgAssertionException6severeEv
FNDA:0,_ZNK5mongo11DBException12appendPrefixERSt18basic_stringstreamIcSt11char_traitsIcESaIcEE
FNDA:0,_ZN5mongo11DBExceptionD0Ev
FNDA:0,_ZNK5mongo11DBException8toStatusERKSs
FNDA:1,_ZNK5mongo11DBException4whatEv
FNDA:0,_ZN5mongo13UserExceptionD0Ev
FNDA:0,_ZN5mongo21MsgAssertionExceptionD0Ev
FNDA:0,_ZNK5mongo18AssertionException15isUserAssertionEv
FNDA:161,_ZN5mongo11DBExceptionC2ERKSsi
FNDA:0,_ZN5mongo11DBExceptionC2EPKci
FNDA:0,_ZN5mongo18AssertionExceptionD0Ev
FNDA:0,_ZNK5mongo13UserException6severeEv
FNDA:0,_ZNK5mongo11DBException8toStatusEv
FNDA:1,_ZNK5mongo11DBException7getCodeEv
FNDA:0,_ZN5mongo11DBException10addContextERKSs
FNDA:0,_ZNK5mongo13UserException15isUserAssertionEv
FNDA:12,_ZN5mongo15uassertStatusOKERKNS_6StatusE
FNDA:30,_ZN5mongo13UserExceptionD2Ev
FNDA:161,_ZN5mongo11DBExceptionD2Ev
FNDA:0,_ZN5mongo11DBExceptionC2ERKS0_
FNDA:0,_ZN5mongo18AssertionExceptionD2Ev
FNF:23
FNH:7
DA:45,161
DA:48,0
DA:51,161
DA:81,0
DA:84,0
DA:85,644
DA:86,483
DA:88,2
DA:89,1
DA:90,0
DA:91,0
DA:92,0
DA:93,0
DA:98,0
DA:99,0
DA:101,0
DA:102,0
DA:116,0
DA:121,144
DA:123,144
DA:125,0
DA:126,0
DA:130,60
DA:132,60
DA:133,0
DA:134,0
DA:138,228
DA:141,228
DA:142,0
DA:176,101699
DA:189,12
DA:190,12
DA:192,0
DA:194,12
LF:34
LH:16
end_of_record
TN:
SF:/home/tbrock/Code/mongo-cxx-driver/src/mongo/util/background.cpp
FN:40,_ZN5mongo12_GLOBAL__N_118PeriodicTaskRunnerD0Ev
FN:40,_ZN5mongo12_GLOBAL__N_118PeriodicTaskRunnerD2Ev
FN:43,_ZN5mongo12_GLOBAL__N_118PeriodicTaskRunnerC2Ev
FN:54,_ZNK5mongo12_GLOBAL__N_118PeriodicTaskRunner4nameEv
FN:93,_Z41__static_initialization_and_destruction_0ii
FN:98,_ZN5mongo12PeriodicTask24stopRunningPeriodicTasksEi
FN:98,_ZN5mongo12PeriodicTaskD2Ev
FN:98,_ZN5mongo12PeriodicTaskC2Ev
FN:98,_ZN5mongo12PeriodicTask25startRunningPeriodicTasksEv
FN:120,_ZN5mongo13BackgroundJob9JobStatusC2Ev
FN:130,_ZN5mongo13BackgroundJobC2Eb
FN:135,_ZN5mongo13BackgroundJobD0Ev
FN:135,_ZN5mongo13BackgroundJobD2Ev
FN:137,_ZN5mongo13BackgroundJob7jobBodyEv
FN:179,_ZN5mongo13BackgroundJob2goEv
FN:193,_ZN5mongo13BackgroundJob6cancelEv
FN:208,_ZN5mongo13BackgroundJob4waitEj
FN:224,_ZNK5mongo13BackgroundJob8getStateEv
FN:229,_ZNK5mongo13BackgroundJob7runningEv
FN:247,_ZN5mongo12PeriodicTaskD0Ev
FN:284,_ZN5mongo12_GLOBAL__N_118PeriodicTaskRunner3addEPNS_12PeriodicTaskE
FN:289,_ZN5mongo12_GLOBAL__N_118PeriodicTaskRunner6removeEPNS_12PeriodicTaskE
FN:299,_ZN5mongo12_GLOBAL__N_118PeriodicTaskRunner4stopEi
FN:313,_ZN5mongo12_GLOBAL__N_118PeriodicTaskRunner3runEv
FN:328,_ZNK5mongo12_GLOBAL__N_118PeriodicTaskRunner20_isShutdownRequestedEv
FN:332,_ZN5mongo12_GLOBAL__N_118PeriodicTaskRunner9_runTasksEv
FN:339,_ZN5mongo12_GLOBAL__N_118PeriodicTaskRunner8_runTaskEPNS_12PeriodicTaskE.isra.52
FN:358,_GLOBAL__sub_I_background.cpp
FNDA:0,_ZN5mongo12_GLOBAL__N_118PeriodicTaskRunner8_runTaskEPNS_12PeriodicTaskE.isra.52
FNDA:28,_ZN5mongo12_GLOBAL__N_118PeriodicTaskRunner3runEv
FNDA:28,_ZN5mongo12PeriodicTaskC2Ev
FNDA:28,_ZN5mongo12_GLOBAL__N_118PeriodicTaskRunner3addEPNS_12PeriodicTaskE
FNDA:28,_ZNK5mongo12_GLOBAL__N_118PeriodicTaskRunner4nameEv
FNDA:28,_GLOBAL__sub_I_background.cpp
FNDA:137,_ZN5mongo13BackgroundJobD2Ev
FNDA:0,_ZN5mongo12_GLOBAL__N_118PeriodicTaskRunner9_runTasksEv
FNDA:28,_Z41__static_initialization_and_destruction_0ii
FNDA:0,_ZN5mongo12_GLOBAL__N_118PeriodicTaskRunner6removeEPNS_12PeriodicTaskE
FNDA:28,_ZN5mongo12PeriodicTask25startRunningPeriodicTasksEv
FNDA:108,_ZN5mongo13BackgroundJob6cancelEv
FNDA:28,_ZNK5mongo13BackgroundJob7runningEv
FNDA:112,_ZNK5mongo12_GLOBAL__N_118PeriodicTaskRunner20_isShutdownRequestedEv
FNDA:28,_ZN5mongo12_GLOBAL__N_118PeriodicTaskRunnerD0Ev
FNDA:0,_ZN5mongo13BackgroundJobD0Ev
FNDA:189,_ZN5mongo13BackgroundJob4waitEj
FNDA:28,_ZN5mongo12PeriodicTaskD2Ev
FNDA:28,_ZN5mongo12PeriodicTask24stopRunningPeriodicTasksEi
FNDA:137,_ZN5mongo13BackgroundJob9JobStatusC2Ev
FNDA:137,_ZN5mongo13BackgroundJobC2Eb
FNDA:111,_ZN5mongo13BackgroundJob2goEv
FNDA:0,_ZNK5mongo13BackgroundJob8getStateEv
FNDA:28,_ZN5mongo12_GLOBAL__N_118PeriodicTaskRunnerC2Ev
FNDA:0,_ZN5mongo12PeriodicTaskD0Ev
FNDA:110,_ZN5mongo13BackgroundJob7jobBodyEv
FNDA:28,_ZN5mongo12_GLOBAL__N_118PeriodicTaskRunner4stopEi
FNDA:28,_ZN5mongo12_GLOBAL__N_118PeriodicTaskRunnerD2Ev
FNF:28
FNH:22
DA:40,84
DA:43,28
DA:45,56
DA:54,28
DA:55,28
DA:93,28
DA:98,112
DA:99,112
DA:100,84
DA:103,112
DA:104,84
DA:119,137
DA:120,137
DA:122,137
DA:123,137
DA:130,137
DA:132,137
DA:133,137
DA:135,274
DA:137,110
DA:139,110
DA:140,110
DA:141,220
DA:143,110
DA:146,110
DA:156,110
DA:161,220
DA:162,220
DA:163,220
DA:170,110
DA:171,110
DA:172,0
DA:175,110
DA:176,0
DA:177,110
DA:179,111
DA:180,222
DA:181,222
DA:183,111
DA:187,222
DA:188,110
DA:189,220
DA:191,111
DA:193,108
DA:194,216
DA:196,216
DA:198,29
DA:200,158
DA:201,54
DA:202,54
DA:208,189
DA:209,189
DA:210,378
DA:211,596
DA:212,109
DA:213,108
DA:214,324
DA:215,0
DA:218,2
DA:224,0
DA:225,0
DA:226,0
DA:229,28
DA:230,56
DA:231,84
DA:236,28
DA:237,28
DA:238,28
DA:239,28
DA:241,28
DA:242,28
DA:244,28
DA:247,28
DA:248,28
DA:249,28
DA:252,0
DA:253,28
DA:255,28
DA:256,28
DA:257,28
DA:258,28
DA:260,28
DA:261,0
DA:263,28
DA:266,28
DA:267,28
DA:270,28
DA:273,56
DA:274,56
DA:276,28
DA:277,28
DA:278,28
DA:284,28
DA:285,28
DA:286,28
DA:287,28
DA:289,0
DA:290,0
DA:291,0
DA:292,0
DA:293,0
DA:294,0
DA:297,0
DA:299,28
DA:301,28
DA:302,28
DA:303,28
DA:306,28
DA:308,0
DA:313,28
DA:315,28
DA:320,28
DA:321,56
DA:322,28
DA:323,56
DA:324,0
DA:326,28
DA:328,112
DA:329,112
DA:332,0
DA:333,0
DA:334,0
DA:335,0
DA:336,0
DA:337,0
DA:339,0
DA:342,0
DA:345,0
DA:354,0
DA:355,0
DA:356,0
DA:358,84
LF:132
LH:103
end_of_record
TN:
SF:/home/tbrock/Code/mongo-cxx-driver/src/mongo/util/base64.cpp
FN:31,_Z41__static_initialization_and_destruction_0ii
FN:33,_ZN5mongo6base648Alphabet4testEv
FN:40,_ZN5mongo6base646encodeERSt18basic_stringstreamIcSt11char_traitsIcESaIcEEPKci
FN:80,_ZN5mongo6base646encodeEPKci
FN:114,_ZN5mongo6base646decodeERKSs
FN:126,_GLOBAL__sub_I_base64.cpp
FNDA:0,_ZN5mongo6base646encodeEPKci
FNDA:28,_GLOBAL__sub_I_base64.cpp
FNDA:31,_ZN5mongo6base646encodeERSt18basic_stringstreamIcSt11char_traitsIcESaIcEEPKci
FNDA:28,_Z41__static_initialization_and_destruction_0ii
FNDA:28,_ZN5mongo6base648Alphabet4testEv
FNDA:52,_ZN5mongo6base646decodeERSt18basic_stringstreamIcSt11char_traitsIcESaIcEERKSs
FNDA:0,_ZN5mongo6base646encodeERKSs
FNDA:52,_ZN5mongo6base646decodeERKSs
FNF:8
FNH:6
DA:31,28
DA:33,28
DA:34,28
DA:35,728
DA:36,728
DA:37,28
DA:40,31
DA:41,98
DA:42,76
DA:43,76
DA:46,152
DA:49,76
DA:50,76
DA:51,10
DA:54,71
DA:55,142
DA:58,71
DA:59,71
DA:60,8
DA:63,67
DA:64,134
DA:67,134
DA:70,31
DA:71,31
DA:72,5
DA:74,26
DA:75,4
DA:77,31
DA:80,0
DA:81,0
DA:82,0
DA:83,0
DA:86,0
DA:87,0
DA:91,52
DA:92,52
DA:93,52
DA:94,52
DA:97,178
DA:98,126
DA:99,126
DA:100,126
DA:101,126
DA:103,126
DA:104,126
DA:105,10
DA:106,10
DA:107,5
DA:110,126
DA:112,52
DA:114,52
DA:115,52
DA:116,52
DA:117,52
DA:126,84
LF:55
LH:49
end_of_record
TN:
SF:/home/tbrock/Code/mongo-cxx-driver/src/mongo/util/base64.h
FN:29,_ZN5mongo6base648AlphabetD2Ev
FN:31,_ZN5mongo6base648AlphabetC2Ev
FNDA:28,_ZN5mongo6base648AlphabetD2Ev
FNDA:28,_ZN5mongo6base648AlphabetC2Ev
FNF:2
FNH:2
DA:29,56
DA:31,28
DA:37,28
DA:38,28
DA:39,1820
DA:40,1792
DA:43,28
DA:44,28
DA:49,290
LF:9
LH:9
end_of_record
TN:
SF:/home/tbrock/Code/mongo-cxx-driver/src/mongo/util/bufreader.h
FN:33,_ZN5mongo9BufReader3eofD2Ev
FN:33,_ZN5mongo9BufReader3eofD0Ev
FN:36,_ZNK5mongo9BufReader3eof4whatEv
FNDA:0,_ZNK5mongo9BufReader3eof4whatEv
FNDA:0,_ZN5mongo9BufReader3eofD2Ev
FNDA:0,_ZN5mongo9BufReader3eofD0Ev
FNF:3
FNH:0
DA:33,0
DA:36,0
LF:2
LH:0
end_of_record
TN:
SF:/home/tbrock/Code/mongo-cxx-driver/src/mongo/util/concurrency/mutex.h
FN:33,_ZN5mongo14incxtimemillisEx
FN:51,_ZN5mongo14StaticObserverD2Ev
FN:62,_ZN5mongo5mutexC2EPKc
FN:66,_ZN5mongo5mutexD2Ev
FN:129,_ZN5mongo11SimpleMutexC2ERKNS_10StringDataE
FN:130,_ZN5mongo11SimpleMutexD2Ev
FN:136,_ZN5mongo11SimpleMutex4lockEv
FN:137,_ZN5mongo11SimpleMutex6unlockEv
FNDA:445,_ZN5mongo5mutexC2EPKc
FNDA:189,_ZN5mongo11SimpleMutexD2Ev
FNDA:389,_ZN5mongo5mutexD2Ev
FNDA:2898,_ZN5mongo11SimpleMutex6unlockEv
FNDA:136,_ZN5mongo14incxtimemillisEx
FNDA:273,_ZN5mongo11SimpleMutexC2ERKNS_10StringDataE
FNDA:2898,_ZN5mongo11SimpleMutex4lockEv
FNDA:28,_ZN5mongo14StaticObserverD2Ev
FNF:8
FNH:8
DA:33,136
DA:35,136
DA:36,136
DA:37,136
DA:38,136
DA:39,16
DA:40,16
DA:42,136
DA:51,28
DA:62,445
DA:64,445
DA:65,445
DA:66,389
DA:67,389
DA:68,221
DA:70,389
DA:86,2346
DA:87,2346
DA:89,2346
DA:129,273
DA:130,189
DA:131,189
DA:132,161
DA:134,189
DA:136,2898
DA:137,2898
DA:142,2813
DA:143,2813
LF:28
LH:28
end_of_record
TN:
SF:/home/tbrock/Code/mongo-cxx-driver/src/mongo/util/concurrency/synchronization.cpp
FN:24,_ZN5mongo12NotificationC2Ev
FN:29,_ZN5mongo12Notification16waitToBeNotifiedEv
FN:36,_ZN5mongo12Notification9notifyOneEv
FN:45,_ZN5mongo9NotifyAllC2Ev
FN:51,_ZN5mongo9NotifyAll3nowEv
FN:56,_ZN5mongo9NotifyAll7waitForEy
FN:64,_ZN5mongo9NotifyAll14awaitBeyondNowEv
FN:73,_ZN5mongo9NotifyAll9notifyAllEy
FN:80,_GLOBAL__sub_I_synchronization.cpp
FN:80,_Z41__static_initialization_and_destruction_0ii
FNDA:0,_ZN5mongo12Notification9notifyOneEv
FNDA:0,_ZN5mongo9NotifyAllC2Ev
FNDA:0,_ZN5mongo9NotifyAll14awaitBeyondNowEv
FNDA:28,_Z41__static_initialization_and_destruction_0ii
FNDA:0,_ZN5mongo12Notification16waitToBeNotifiedEv
FNDA:0,_ZN5mongo12NotificationC2Ev
FNDA:0,_ZN5mongo9NotifyAll9notifyAllEy
FNDA:0,_ZN5mongo9NotifyAll7waitForEy
FNDA:0,_ZN5mongo9NotifyAll3nowEv
FNDA:28,_GLOBAL__sub_I_synchronization.cpp
FNF:10
FNH:2
DA:24,0
DA:25,0
DA:26,0
DA:27,0
DA:29,0
DA:30,0
DA:31,0
DA:32,0
DA:33,0
DA:34,0
DA:36,0
DA:37,0
DA:38,0
DA:39,0
DA:40,0
DA:41,0
DA:45,0
DA:46,0
DA:47,0
DA:48,0
DA:49,0
DA:51,0
DA:52,0
DA:53,0
DA:56,0
DA:57,0
DA:58,0
DA:59,0
DA:60,0
DA:62,0
DA:64,0
DA:65,0
DA:66,0
DA:67,0
DA:68,0
DA:69,0
DA:71,0
DA:73,0
DA:74,0
DA:75,0
DA:76,0
DA:77,0
DA:78,0
DA:80,84
LF:44
LH:1
end_of_record
TN:
SF:/home/tbrock/Code/mongo-cxx-driver/src/mongo/util/concurrency/thread_name.cpp
FN:28,_Z41__static_initialization_and_destruction_0ii
FN:61,_ZN5mongo13setThreadNameENS_10StringDataE
FN:71,_ZN5mongo13getThreadNameEv
FN:79,_GLOBAL__sub_I_thread_name.cpp
FNDA:28,_GLOBAL__sub_I_thread_name.cpp
FNDA:119,_ZN5mongo13setThreadNameENS_10StringDataE
FNDA:28,_Z41__static_initialization_and_destruction_0ii
FNDA:254,_ZN5mongo13getThreadNameEv
FNF:4
FNH:4
DA:28,28
DA:61,119
DA:62,238
DA:69,119
DA:71,254
DA:73,517
DA:74,9
DA:76,254
DA:79,84
LF:9
LH:9
end_of_record
TN:
SF:/home/tbrock/Code/mongo-cxx-driver/src/mongo/util/concurrency/threadlocal.h
FN:77,_ZN5mongo3TSPINS_18OwnedPointerVectorISt19basic_ostringstreamIcSt11char_traitsIcESaIcEEEEED2Ev
FN:82,_ZN5mongo3TSPINS_18OwnedPointerVectorISt19basic_ostringstreamIcSt11char_traitsIcESaIcEEEEE7getMakeEv
FNDA:506,_ZN5mongo3TSPINS_18OwnedPointerVectorISt19basic_ostringstreamIcSt11char_traitsIcESaIcEEEEE7getMakeEv
FNDA:28,_ZN5mongo3TSPINS_18OwnedPointerVectorISt19basic_ostringstreamIcSt11char_traitsIcESaIcEEEEED2Ev
FNF:2
FNH:2
DA:77,56
DA:82,506
DA:83,1012
DA:84,506
DA:85,20
DA:86,506
LF:6
LH:6
end_of_record
TN:
SF:/home/tbrock/Code/mongo-cxx-driver/src/mongo/util/embedded_builder.h
FN:23,_ZN5mongo15EmbeddedBuilderD2Ev
FN:25,_ZN5mongo15EmbeddedBuilderC2EPNS_14BSONObjBuilderE
FN:30,_ZN5mongo15EmbeddedBuilder14prepareContextERSs
FN:46,_ZN5mongo15EmbeddedBuilder8appendAsERKNS_11BSONElementESs
FN:64,_ZN5mongo15EmbeddedBuilder8splitDotERSs
FN:74,_ZN5mongo15EmbeddedBuilder10addBuilderERKSs
FN:79,_ZN5mongo15EmbeddedBuilder10popBuilderEv
FNDA:5,_ZN5mongo15EmbeddedBuilder10popBuilderEv
FNDA:4,_ZN5mongo15EmbeddedBuilderC2EPNS_14BSONObjBuilderE
FNDA:15,_ZN5mongo15EmbeddedBuilder8splitDotERSs
FNDA:5,_ZN5mongo15EmbeddedBuilder10addBuilderERKSs
FNDA:10,_ZN5mongo15EmbeddedBuilder14prepareContextERSs
FNDA:10,_ZN5mongo15EmbeddedBuilder8appendAsERKNS_11BSONElementESs
FNDA:4,_ZN5mongo15EmbeddedBuilderD2Ev
FNF:7
FNH:7
DA:23,4
DA:25,8
DA:26,12
DA:27,4
DA:30,10
DA:31,34
DA:32,38
DA:33,56
DA:34,20
DA:36,20
DA:37,4
DA:39,13
DA:40,3
DA:42,35
DA:43,5
DA:45,10
DA:46,10
DA:47,20
DA:48,0
DA:49,0
DA:50,10
DA:52,10
DA:53,10
DA:60,12
DA:61,2
DA:64,15
DA:65,15
DA:66,15
DA:67,10
DA:68,5
DA:69,10
DA:70,5
DA:74,5
DA:75,5
DA:76,20
DA:77,5
DA:78,5
DA:79,5
DA:80,10
DA:81,5
DA:82,5
DA:83,5
DA:85,40
LF:43
LH:41
end_of_record
TN:
SF:/home/tbrock/Code/mongo-cxx-driver/src/mongo/util/fail_point.cpp
FN:27,_ZN5mongo9FailPointC2Ev
FN:34,_ZN5mongo9FailPoint20shouldFailCloseBlockEv
FN:38,_ZN5mongo9FailPoint7setModeENS0_4ModeEjRKNS_7BSONObjE
FN:71,_ZNK5mongo9FailPoint7getDataEv
FN:75,_ZN5mongo9FailPoint15enableFailPointEv
FN:88,_ZN5mongo9FailPoint16disableFailPointEv
FN:101,_ZN5mongo9FailPoint23slowShouldFailOpenBlockEv
FN:134,_ZNK5mongo9FailPoint6toBSONEv
FN:144,_ZN5mongo15ScopedFailPointC2EPNS_9FailPointE
FN:150,_ZN5mongo15ScopedFailPointD2Ev
FN:156,_ZNK5mongo15ScopedFailPoint7getDataEv
FN:161,_Z41__static_initialization_and_destruction_0ii
FN:161,_GLOBAL__sub_I_fail_point.cpp
FNDA:9,_ZN5mongo9FailPoint20shouldFailCloseBlockEv
FNDA:9,_ZN5mongo9FailPoint15enableFailPointEv
FNDA:0,_ZNK5mongo9FailPoint6toBSONEv
FNDA:56,_ZN5mongo9FailPointC2Ev
FNDA:28,_Z41__static_initialization_and_destruction_0ii
FNDA:28,_GLOBAL__sub_I_fail_point.cpp
FNDA:0,_ZN5mongo15ScopedFailPointC2EPNS_9FailPointE
FNDA:9,_ZN5mongo9FailPoint23slowShouldFailOpenBlockEv
FNDA:0,_ZN5mongo15ScopedFailPointD2Ev
FNDA:0,_ZNK5mongo9FailPoint7getDataEv
FNDA:18,_ZN5mongo9FailPoint7setModeENS0_4ModeEjRKNS_7BSONObjE
FNDA:18,_ZN5mongo9FailPoint16disableFailPointEv
FNDA:0,_ZNK5mongo15ScopedFailPoint7getDataEv
FNF:13
FNH:8
DA:27,56
DA:31,224
DA:32,56
DA:34,9
DA:35,9
DA:36,9
DA:38,18
DA:47,18
DA:50,18
DA:53,36
DA:54,0
DA:58,18
DA:59,18
DA:61,18
DA:62,18
DA:64,36
DA:66,18
DA:67,9
DA:69,18
DA:71,0
DA:72,0
DA:75,9
DA:77,18
DA:81,9
DA:82,9
DA:83,9
DA:84,18
DA:86,9
DA:88,18
DA:90,36
DA:94,18
DA:95,18
DA:96,18
DA:97,36
DA:99,18
DA:101,9
DA:102,18
DA:104,9
DA:108,9
DA:114,0
DA:115,0
DA:119,0
DA:121,0
DA:122,0
DA:129,0
DA:130,0
DA:134,0
DA:135,0
DA:137,0
DA:138,0
DA:139,0
DA:141,0
DA:144,0
DA:147,0
DA:148,0
DA:150,0
DA:151,0
DA:152,0
DA:154,0
DA:156,0
DA:158,0
DA:159,0
DA:161,84
LF:63
LH:37
end_of_record
TN:
SF:/home/tbrock/Code/mongo-cxx-driver/src/mongo/util/fail_point.h
FN:53,_ZN5mongo9FailPointD2Ev
FN:68,_ZN5mongo9FailPoint10shouldFailEv
FNDA:56,_ZN5mongo9FailPointD2Ev
FNDA:100484,_ZN5mongo9FailPoint10shouldFailEv
FNF:2
FNH:2
DA:53,112
DA:68,100484
DA:69,100484
DA:71,100484
DA:75,9
DA:76,9
DA:87,200968
DA:91,9
LF:8
LH:8
end_of_record
TN:
SF:/home/tbrock/Code/mongo-cxx-driver/src/mongo/util/fail_point_registry.cpp
FN:27,_ZN5mongo17FailPointRegistryC2Ev
FN:30,_ZN5mongo17FailPointRegistry12addFailPointERKSsPNS_9FailPointE
FN:45,_ZNK5mongo17FailPointRegistry12getFailPointERKSs
FN:49,_ZN5mongo17FailPointRegistry6freezeEv
FN:52,_Z41__static_initialization_and_destruction_0ii
FN:52,_GLOBAL__sub_I_fail_point_registry.cpp
FNDA:12,_ZNK5mongo17FailPointRegistry12getFailPointERKSs
FNDA:28,_GLOBAL__sub_I_fail_point_registry.cpp
FNDA:28,_ZN5mongo17FailPointRegistryC2Ev
FNDA:28,_Z41__static_initialization_and_destruction_0ii
FNDA:56,_ZN5mongo17FailPointRegistry12addFailPointERKSsPNS_9FailPointE
FNDA:28,_ZN5mongo17FailPointRegistry6freezeEv
FNF:6
FNH:6
DA:27,56
DA:28,28
DA:30,56
DA:32,56
DA:33,0
DA:36,56
DA:38,0
DA:41,336
DA:45,12
DA:46,12
DA:49,28
DA:50,28
DA:51,28
DA:52,84
LF:14
LH:12
end_of_record
TN:
SF:/home/tbrock/Code/mongo-cxx-driver/src/mongo/util/fail_point_registry.h
FNF:0
FNH:0
DA:30,28
LF:1
LH:1
end_of_record
TN:
SF:/home/tbrock/Code/mongo-cxx-driver/src/mongo/util/fail_point_service.cpp
FN:21,_ZN5mongo31_mongoInitializerFunction_dummyEPNS_18InitializerContextE
FN:21,_Z41__static_initialization_and_destruction_0ii
FN:25,_ZN5mongo43_mongoInitializerFunction_FailPointRegistryEPNS_18InitializerContextE
FN:30,_ZN5mongo49_mongoInitializerFunction_AllFailPointsRegisteredEPNS_18InitializerContextE
FN:37,_ZN5mongo26getGlobalFailPointRegistryEv
FN:42,_GLOBAL__sub_I_fail_point_service.cpp
FN:42,_ZN5mongo55_mongoInitializerFunctionAssure_util_fail_point_serviceEv
FNDA:68,_ZN5mongo26getGlobalFailPointRegistryEv
FNDA:0,_ZN5mongo55_mongoInitializerFunctionAssure_util_fail_point_serviceEv
FNDA:28,_Z41__static_initialization_and_destruction_0ii
FNDA:28,_ZN5mongo49_mongoInitializerFunction_AllFailPointsRegisteredEPNS_18InitializerContextE
FNDA:28,_ZN5mongo43_mongoInitializerFunction_FailPointRegistryEPNS_18InitializerContextE
FNDA:28,_ZN5mongo31_mongoInitializerFunction_dummyEPNS_18InitializerContextE
FNDA:28,_GLOBAL__sub_I_fail_point_service.cpp
FNF:7
FNH:6
DA:21,168
DA:23,28
DA:25,140
DA:26,28
DA:27,28
DA:30,140
DA:33,28
DA:34,28
DA:37,68
DA:38,68
DA:42,84
LF:11
LH:11
end_of_record
TN:
SF:/home/tbrock/Code/mongo-cxx-driver/src/mongo/util/goodies.h
FN:82,_ZN5mongo10startsWithEPKcS1_
FNDA:28,_ZN5mongo10startsWithEPKcS1_
FNF:1
FNH:1
DA:82,28
DA:83,28
DA:84,28
DA:85,28
DA:88,56
DA:145,0
LF:6
LH:5
end_of_record
TN:
SF:/home/tbrock/Code/mongo-cxx-driver/src/mongo/util/hex.cpp
FN:24,_ZN5mongo15integerToHexDefIxEESsT_
FN:24,_ZN5mongo15integerToHexDefIlEESsT_
FN:24,_ZN5mongo15integerToHexDefIjEESsT_
FN:24,_ZN5mongo15integerToHexDefIiEESsT_
FN:49,_ZN5mongo12integerToHexIiEESsT_
FN:50,_ZN5mongo12integerToHexIjEESsT_
FN:52,_ZN5mongo12integerToHexIlEESsT_
FN:53,_ZN5mongo12integerToHexIxEESsT_
FN:54,_GLOBAL__sub_I_hex.cpp
FN:54,_Z41__static_initialization_and_destruction_0ii
FNDA:0,_ZN5mongo15integerToHexDefIjEESsT_
FNDA:0,_ZN5mongo15integerToHexDefIlEESsT_
FNDA:2,_ZN5mongo15integerToHexDefIxEESsT_
FNDA:0,_ZN5mongo12integerToHexIjEESsT_
FNDA:2,_ZN5mongo12integerToHexIxEESsT_
FNDA:28,_Z41__static_initialization_and_destruction_0ii
FNDA:8,_ZN5mongo15integerToHexDefIiEESsT_
FNDA:0,_ZN5mongo12integerToHexIlEESsT_
FNDA:28,_GLOBAL__sub_I_hex.cpp
FNDA:8,_ZN5mongo12integerToHexIiEESsT_
FNF:10
FNH:6
DA:24,10
DA:25,10
DA:26,1
DA:32,9
DA:35,9
DA:36,97
DA:37,88
DA:38,88
DA:39,53
DA:40,88
DA:41,88
DA:43,9
DA:44,9
DA:46,9
DA:49,8
DA:50,0
DA:51,0
DA:52,0
DA:53,2
DA:54,84
LF:20
LH:17
end_of_record
TN:
SF:/home/tbrock/Code/mongo-cxx-driver/src/mongo/util/hex.h
FN:27,_ZN5mongo7fromHexEc
FN:37,_ZN5mongo7fromHexEPKc
FN:40,_ZN5mongo7fromHexERKNS_10StringDataE
FN:44,_ZN5mongo5toHexEPKvi
FN:62,_ZN5mongo10toHexLowerEPKvi
FNDA:618,_ZN5mongo7fromHexEPKc
FNDA:1326,_ZN5mongo7fromHexEc
FNDA:45,_ZN5mongo7fromHexERKNS_10StringDataE
FNDA:44,_ZN5mongo10toHexLowerEPKvi
FNDA:0,_ZN5mongo5toHexEPKvi
FNF:5
FNH:4
DA:27,1326
DA:28,1326
DA:29,728
DA:30,598
DA:31,596
DA:32,2
DA:33,2
DA:34,0
DA:37,618
DA:38,618
DA:40,90
DA:41,180
DA:44,0
DA:49,0
DA:50,0
DA:51,0
DA:52,0
DA:54,0
DA:57,0
DA:62,44
DA:67,374
DA:68,374
DA:69,374
DA:70,374
DA:72,374
DA:75,88
LF:26
LH:18
end_of_record
TN:
SF:/home/tbrock/Code/mongo-cxx-driver/src/mongo/util/log.cpp
FN:46,_ZN5mongo6logger25registerExtraLogContextFnEPFvRNS_11_BufBuilderINS_16TrivialAllocatorEEEE
FN:57,_ZN5mongo10rotateLogsEv
FN:65,_ZN5mongo20errnoWithDescriptionEi
FN:117,_ZN5mongo17setRawOutToStderrEv
FN:125,_ZN5mongo6rawOutERKNS_10StringDataE
FN:148,_ZN5mongo10logContextEPKc
FN:154,_ZN5mongo14LogIndentLevelC2Ev
FN:157,_ZN5mongo14LogIndentLevelD2Ev
FN:160,_Z41__static_initialization_and_destruction_0ii
FN:163,_GLOBAL__sub_I_log.cpp
FNDA:0,_ZN5mongo17setRawOutToStderrEv
FNDA:28,_Z41__static_initialization_and_destruction_0ii
FNDA:90,_ZN5mongo20errnoWithDescriptionEi
FNDA:0,_ZN5mongo14LogIndentLevelD2Ev
FNDA:0,_ZN5mongo6rawOutERKNS_10StringDataE
FNDA:0,_ZN5mongo10rotateLogsEv
FNDA:0,_ZN5mongo14LogIndentLevelC2Ev
FNDA:0,_ZN5mongo6logger25registerExtraLogContextFnEPFvRNS_11_BufBuilderINS_16TrivialAllocatorEEEE
FNDA:6,_ZN5mongo10logContextEPKc
FNDA:28,_GLOBAL__sub_I_log.cpp
FNF:10
FNH:4
DA:46,0
DA:47,0
DA:48,0
DA:49,0
DA:51,0
DA:53,0
DA:57,0
DA:59,0
DA:61,0
DA:62,0
DA:65,90
DA:70,90
DA:71,83
DA:73,90
DA:74,90
DA:108,90
DA:110,90
DA:117,0
DA:118,0
DA:119,0
DA:125,0
DA:129,0
DA:132,0
DA:133,0
DA:134,0
DA:138,0
DA:140,0
DA:141,0
DA:143,0
DA:144,0
DA:148,6
DA:149,6
DA:150,3
DA:152,6
DA:154,0
DA:155,0
DA:157,0
DA:158,0
DA:160,56
DA:161,56
DA:163,84
LF:41
LH:14
end_of_record
TN:
SF:/home/tbrock/Code/mongo-cxx-driver/src/mongo/util/log.h
FN:51,_ZN5mongo5errorEv
FN:60,_ZN5mongo7warningEv
FN:69,_ZN5mongo3logEv
FN:91,_ZN5mongo7problemEv
FNDA:230,_ZN5mongo3logEv
FNDA:0,_ZN5mongo5errorEv
FNDA:13,_ZN5mongo7warningEv
FNDA:1,_ZN5mongo7problemEv
FNF:4
FNH:3
DA:51,0
DA:53,0
DA:54,0
DA:60,13
DA:62,13
DA:63,13
DA:69,230
DA:71,230
DA:72,230
DA:79,0
DA:91,1
DA:92,3
LF:12
LH:8
end_of_record
TN:
SF:/home/tbrock/Code/mongo-cxx-driver/src/mongo/util/map_util.h
FN:26,_ZN5mongo18mapFindWithDefaultINSt3tr113unordered_mapISsPNS_9FailPointENS1_4hashISsEESt8equal_toISsESaISt4pairIKSsS4_EEEESsS4_EET1_RKT_RKT0_RKSE_
FN:26,_ZN5mongo18mapFindWithDefaultINSt3tr113unordered_mapISsPNS_6logger19RotatableFileWriterENS1_4hashISsEESt8equal_toISsESaISt4pairIKSsS5_EEEESsS5_EET1_RKT_RKT0_RKSF_
FNDA:0,_ZN5mongo18mapFindWithDefaultINSt3tr113unordered_mapISsPNS_6logger19RotatableFileWriterENS1_4hashISsEESt8equal_toISsESaISt4pairIKSsS5_EEEESsS5_EET1_RKT_RKT0_RKSF_
FNDA:12,_ZN5mongo18mapFindWithDefaultINSt3tr113unordered_mapISsPNS_9FailPointENS1_4hashISsEESt8equal_toISsESaISt4pairIKSsS4_EEEESsS4_EET1_RKT_RKT0_RKSE_
FNF:2
FNH:1
DA:26,12
DA:27,1092
DA:28,1104
DA:29,0
DA:30,1023
LF:5
LH:4
end_of_record
TN:
SF:/home/tbrock/Code/mongo-cxx-driver/src/mongo/util/md5.cpp
FN:134,md5_process
FN:315,md5_init
FN:325,md5_append
FN:363,md5_finish
FNDA:100013,md5_finish
FNDA:200014,md5_process
FNDA:300047,md5_append
FNDA:100013,md5_init
FNF:4
FNH:4
DA:134,200014
DA:137,200014
DA:138,200014
DA:158,200014
DA:166,200014
DA:171,0
DA:172,0
DA:193,0
DA:194,0
DA:209,200014
DA:210,200014
DA:211,200014
DA:212,200014
DA:213,200014
DA:214,200014
DA:215,200014
DA:216,200014
DA:217,200014
DA:218,200014
DA:219,200014
DA:220,200014
DA:221,200014
DA:222,200014
DA:223,200014
DA:224,200014
DA:235,200014
DA:236,200014
DA:237,200014
DA:238,200014
DA:239,200014
DA:240,200014
DA:241,200014
DA:242,200014
DA:243,200014
DA:244,200014
DA:245,200014
DA:246,200014
DA:247,200014
DA:248,200014
DA:249,200014
DA:250,200014
DA:261,200014
DA:262,200014
DA:263,200014
DA:264,200014
DA:265,200014
DA:266,200014
DA:267,200014
DA:268,200014
DA:269,200014
DA:270,200014
DA:271,200014
DA:272,200014
DA:273,200014
DA:274,200014
DA:275,200014
DA:276,200014
DA:287,200014
DA:288,200014
DA:289,200014
DA:290,200014
DA:291,200014
DA:292,200014
DA:293,200014
DA:294,200014
DA:295,200014
DA:296,200014
DA:297,200014
DA:298,200014
DA:299,200014
DA:300,200014
DA:301,200014
DA:302,200014
DA:308,200014
DA:309,200014
DA:310,200014
DA:311,200014
DA:312,200014
DA:315,100013
DA:317,100013
DA:318,100013
DA:319,100013
DA:320,100013
DA:321,100013
DA:322,100013
DA:325,300047
DA:327,300047
DA:328,300047
DA:329,300047
DA:330,300047
DA:332,300047
DA:336,300047
DA:337,300047
DA:338,300047
DA:339,0
DA:342,300047
DA:343,200034
DA:345,200034
DA:346,200034
DA:348,100014
DA:349,100014
DA:350,100014
DA:354,100000
DA:355,100000
DA:358,200027
DA:359,100014
DA:363,100013
DA:375,900117
DA:376,800104
DA:378,100013
DA:380,100013
DA:381,1600208
DA:382,1600208
DA:383,100013
LF:114
LH:109
end_of_record
TN:
SF:/home/tbrock/Code/mongo-cxx-driver/src/mongo/util/md5.hpp
FN:41,_ZN5mongo14digestToStringEPh
FNDA:100013,_ZN5mongo14digestToStringEPh
FNF:1
FNH:1
DA:41,100013
DA:43,100013
DA:44,1600208
DA:45,1600208
DA:46,3200416
DA:48,100013
LF:6
LH:6
end_of_record
TN:
SF:/home/tbrock/Code/mongo-cxx-driver/src/mongo/util/mongoutils/html.h
FN:100,_ZN10mongoutils4html3redERKSsb
FN:118,_ZN10mongoutils4html6yellowERKSsb
FN:124,_ZN10mongoutils4html5greenERKSsb
FN:144,_ZN10mongoutils4html1aERKSsS2_S2_
FN:159,_ZN10mongoutils4html6escapeERKSs
FNDA:0,_ZN10mongoutils4html5greenERKSsb
FNDA:0,_ZN10mongoutils4html6yellowERKSsb
FNDA:0,_ZN10mongoutils4html1aERKSsS2_S2_
FNDA:0,_ZN10mongoutils4html6escapeERKSs
FNDA:0,_ZN10mongoutils4html3redERKSsb
FNF:5
FNH:0
DA:100,0
DA:101,0
DA:102,0
DA:103,0
DA:104,0
DA:118,0
DA:119,0
DA:120,0
DA:121,0
DA:122,0
DA:124,0
DA:125,0
DA:126,0
DA:127,0
DA:128,0
DA:144,0
DA:147,0
DA:148,0
DA:149,0
DA:150,0
DA:152,0
DA:153,0
DA:155,0
DA:159,0
DA:161,0
DA:162,0
DA:163,0
DA:165,0
DA:168,0
DA:171,0
DA:174,0
DA:177,0
DA:180,0
DA:184,0
LF:34
LH:0
end_of_record
TN:
SF:/home/tbrock/Code/mongo-cxx-driver/src/mongo/util/mongoutils/str.h
FN:76,_ZN10mongoutils3str8endsWithERKSsS2_
FN:104,_ZN10mongoutils3str5afterERKSsS2_
FN:115,_ZN10mongoutils3str8containsERKSsc
FN:200,_ZN10mongoutils3str5ltrimERKSs
FNDA:3,_ZN10mongoutils3str5ltrimERKSs
FNDA:0,_ZN10mongoutils3str8endsWithERKSsS2_
FNDA:0,_ZN10mongoutils3str5afterERKSsS2_
FNDA:109,_ZN10mongoutils3str8containsERKSsc
FNF:4
FNH:2
DA:48,1252
DA:53,869
DA:56,626
DA:60,0
DA:61,0
DA:62,0
DA:63,0
DA:64,0
DA:69,0
DA:74,16
DA:76,0
DA:77,0
DA:78,0
DA:79,0
DA:80,0
DA:87,46
DA:104,0
DA:105,0
DA:106,0
DA:113,6
DA:115,109
DA:116,109
DA:117,327
DA:193,1426
DA:194,1380
DA:195,0
DA:200,3
DA:201,3
DA:202,3
DA:203,3
LF:30
LH:15
end_of_record
TN:
SF:/home/tbrock/Code/mongo-cxx-driver/src/mongo/util/net/hostandport.h
FN:40,_ZN5mongo11HostAndPortC2ERKSsi
FN:44,_ZN5mongo11HostAndPortC2ERKNS_8SockAddrE
FN:48,_ZNK5mongo11HostAndPortltERKS0_
FN:55,_ZNK5mongo11HostAndPorteqERKS0_
FN:81,_ZNK5mongo11HostAndPort6appendERNS_17StringBuilderImplINS_16TrivialAllocatorEEE
FN:124,_ZNK5mongo11HostAndPort8toStringEb
FN:165,_ZN5mongo11HostAndPort4initEPKc
FN:181,_ZN5mongo11HostAndPortC2ERKSs
FNDA:1,_ZN5mongo11HostAndPortC2ERKNS_8SockAddrE
FNDA:1176,_ZN5mongo11HostAndPort4initEPKc
FNDA:682,_ZNK5mongo11HostAndPort6appendERNS_17StringBuilderImplINS_16TrivialAllocatorEEE
FNDA:8,_ZN5mongo11HostAndPortC2ERKSsi
FNDA:751,_ZNK5mongo11HostAndPorteqERKS0_
FNDA:516,_ZNK5mongo11HostAndPort8toStringEb
FNDA:4101,_ZNK5mongo11HostAndPortltERKS0_
FNDA:1176,_ZN5mongo11HostAndPortC2ERKSs
FNF:8
FNH:8
DA:31,13388
DA:32,2248
DA:40,8
DA:41,8
DA:42,8
DA:44,1
DA:48,4101
DA:49,4101
DA:50,4101
DA:51,3079
DA:52,2044
DA:55,751
DA:56,2061
DA:59,342
DA:76,950
DA:81,4116
DA:82,4116
DA:124,516
DA:125,516
DA:126,0
DA:129,516
DA:130,516
DA:133,682
DA:134,1364
DA:136,682
DA:138,682
DA:139,682
DA:152,682
DA:165,1176
DA:166,1176
DA:167,1176
DA:168,1176
DA:169,1716
DA:170,858
DA:171,1716
DA:172,858
DA:176,318
DA:177,318
DA:179,1176
DA:181,1176
DA:182,1176
DA:183,1176
LF:42
LH:41
end_of_record
TN:
SF:/home/tbrock/Code/mongo-cxx-driver/src/mongo/util/net/httpclient.cpp
FN:36,_ZN5mongo10HttpClient3getERKSsPNS0_6ResultE
FN:40,_ZN5mongo10HttpClient4postERKSsS2_PNS0_6ResultE
FN:44,_ZN5mongo10HttpClient3_goEPKcSsS2_PNS0_6ResultE
FN:154,_ZN5mongo10HttpClient6Result5_initEiSs
FN:182,_GLOBAL__sub_I_httpclient.cpp
FN:182,_Z41__static_initialization_and_destruction_0ii
FNDA:1,_ZN5mongo10HttpClient3getERKSsPNS0_6ResultE
FNDA:0,_ZN5mongo10HttpClient4postERKSsS2_PNS0_6ResultE
FNDA:1,_ZN5mongo10HttpClient6Result5_initEiSs
FNDA:28,_Z41__static_initialization_and_destruction_0ii
FNDA:1,_ZN5mongo10HttpClient3_goEPKcSsS2_PNS0_6ResultE
FNDA:28,_GLOBAL__sub_I_httpclient.cpp
FNF:6
FNH:5
DA:36,1
DA:37,2
DA:40,0
DA:41,0
DA:44,1
DA:45,1
DA:46,1
DA:47,0
DA:48,0
DA:51,1
DA:52,2
DA:56,1
DA:61,2
DA:62,2
DA:69,1
DA:70,1
DA:72,1
DA:73,1
DA:74,2
DA:75,1
DA:76,2
DA:84,1
DA:85,2
DA:86,2
DA:87,1
DA:88,1
DA:89,1
DA:90,0
DA:92,1
DA:93,1
DA:94,0
DA:97,1
DA:100,1
DA:103,2
DA:104,1
DA:107,1
DA:110,0
DA:112,0
DA:119,1
DA:120,1
DA:121,1
DA:125,1
DA:126,1
DA:130,1
DA:134,1
DA:135,1
DA:139,28
DA:140,27
DA:141,27
DA:142,28
DA:144,1
DA:147,1
DA:148,3
DA:151,1
DA:154,1
DA:155,1
DA:156,1
DA:159,5
DA:160,5
DA:165,5
DA:166,10
DA:168,10
DA:169,10
DA:171,5
DA:174,4
DA:175,4
DA:176,12
DA:179,5
DA:180,1
DA:182,84
LF:70
LH:62
end_of_record
TN:
SF:/home/tbrock/Code/mongo-cxx-driver/src/mongo/util/net/httpclient.h
FN:34,_ZN5mongo10HttpClient6ResultD2Ev
FNDA:1,_ZN5mongo10HttpClient6ResultD2Ev
FNF:1
FNH:1
DA:34,4
DA:36,3
DA:43,1
LF:3
LH:3
end_of_record
TN:
SF:/home/tbrock/Code/mongo-cxx-driver/src/mongo/util/net/message.cpp
FN:29,_ZN5mongo7Message4sendERNS_13MessagingPortEPKc
FN:50,_ZN5mongo13nextMessageIdEv
FN:55,_ZN5mongo18doesOpGetAResponseEi
FN:60,_GLOBAL__sub_I_message.cpp
FN:60,_Z41__static_initialization_and_destruction_0ii
FNDA:0,_ZN5mongo18doesOpGetAResponseEi
FNDA:100218,_ZN5mongo7Message4sendERNS_13MessagingPortEPKc
FNDA:28,_GLOBAL__sub_I_message.cpp
FNDA:100218,_ZN5mongo13nextMessageIdEv
FNDA:28,_Z41__static_initialization_and_destruction_0ii
FNF:5
FNH:4
DA:29,100218
DA:30,100218
DA:31,100215
DA:33,100218
DA:34,100218
DA:37,0
DA:50,100218
DA:51,200436
DA:52,100218
DA:55,0
DA:56,0
DA:60,84
LF:12
LH:9
end_of_record
TN:
SF:/home/tbrock/Code/mongo-cxx-driver/src/mongo/util/net/message.h
FN:54,_ZN5mongo10opToStringEi
FN:120,_ZN5mongo7Message7setDataEiPKcm
FN:156,_ZN5mongo7MessageC2Ev
FN:157,_ZN5mongo7MessageC2EPvb
FN:164,_ZN5mongo7MessageD2Ev
FN:170,_ZNK5mongo7Message6headerEv
FN:176,_ZNK5mongo7Message10singleDataEv
FN:181,_ZN5mongo7Message7setDataEPNS_7MsgDataEb
FN:236,_ZN5mongo7Message5resetEv
FNDA:117,_ZN5mongo7Message7setDataEPNS_7MsgDataEb
FNDA:0,_ZN5mongo10opToStringEi
FNDA:100383,_ZN5mongo7Message5resetEv
FNDA:200787,_ZNK5mongo7Message6headerEv
FNDA:117,_ZNK5mongo7Message10singleDataEv
FNDA:100382,_ZN5mongo7MessageC2Ev
FNDA:100218,_ZN5mongo7Message7setDataEiPKcm
FNDA:100382,_ZN5mongo7MessageD2Ev
FNDA:0,_ZN5mongo7MessageC2EPvb
FNF:9
FNH:7
DA:54,0
DA:55,0
DA:57,0
DA:58,0
DA:59,0
DA:60,0
DA:61,0
DA:62,0
DA:63,0
DA:64,0
DA:66,0
DA:117,0
DA:120,100218
DA:121,100218
DA:122,100218
DA:149,0
DA:156,301146
DA:157,0
DA:158,0
DA:159,0
DA:160,0
DA:164,200764
DA:165,100382
DA:166,100382
DA:170,200787
DA:171,200787
DA:172,200787
DA:174,0
DA:176,117
DA:177,117
DA:178,117
DA:181,602010
DA:184,0
DA:185,0
DA:186,0
DA:189,0
DA:190,0
DA:236,100383
DA:237,100383
DA:238,100335
DA:239,100335
DA:241,401340
DA:242,200670
DA:243,0
DA:246,100383
DA:247,100383
DA:248,100383
DA:249,100383
DA:273,117
DA:274,117
DA:275,117
DA:276,117
DA:280,100218
DA:281,100218
DA:282,100218
DA:283,100218
DA:284,100218
DA:285,100218
DA:287,100218
DA:288,100218
DA:300,100335
DA:301,100335
LF:62
LH:38
end_of_record
TN:
SF:/home/tbrock/Code/mongo-cxx-driver/src/mongo/util/net/message_port.cpp
FN:51,_ZN5mongo21AbstractMessagingPort15setConnectionIdEx
FN:61,_ZN5mongo13MessagingPort9piggyBackERNS_7MessageEi
FN:66,_ZN5mongo13PiggyBackDataD2Ev
FN:73,_ZN5mongo13PiggyBackData6appendERNS_7MessageE
FN:83,_ZN5mongo13PiggyBackData5flushEv
FN:91,_ZN5mongo13MessagingPort3sayERNS_7MessageEi
FN:103,_ZN5mongo5PortsC2Ev
FN:104,_ZN5mongo5Ports8closeAllEj
FN:112,_ZN5mongo5Ports6insertEPNS_13MessagingPortE
FN:116,_ZN5mongo5Ports5eraseEPNS_13MessagingPortE
FN:124,_Z41__static_initialization_and_destruction_0ii
FN:126,_ZN5mongo13MessagingPort15closeAllSocketsEj
FN:130,_ZN5mongo13MessagingPortC2EiRKNS_8SockAddrE
FN:135,_ZN5mongo13MessagingPortC2EdNS_6logger11LogSeverityE
FN:141,_ZN5mongo13MessagingPortC2EN5boost10shared_ptrINS_6SocketEEE
FN:146,_ZN5mongo13MessagingPort16setSocketTimeoutEd
FN:150,_ZN5mongo13MessagingPort8shutdownEv
FN:154,_ZN5mongo13MessagingPortD2Ev
FN:154,_ZN5mongo13MessagingPortD0Ev
FN:161,_ZN5mongo13MessagingPort4recvERNS_7MessageE
FN:241,_ZN5mongo13MessagingPort5replyERNS_7MessageES2_
FN:245,_ZN5mongo13MessagingPort5replyERNS_7MessageES2_NS_10AtomicUIntE
FN:249,_ZN5mongo13MessagingPort4callERNS_7MessageES2_
FN:255,_ZN5mongo13MessagingPort4recvERKNS_7MessageERS1_
FN:319,_ZNK5mongo13MessagingPort6remoteEv
FN:325,_ZNK5mongo13MessagingPort10remoteAddrEv
FN:329,_ZNK5mongo13MessagingPort9localAddrEv
FN:333,_GLOBAL__sub_I_message_port.cpp
FNDA:80,_ZN5mongo13MessagingPort8shutdownEv
FNDA:0,_ZN5mongo13MessagingPort5replyERNS_7MessageES2_NS_10AtomicUIntE
FNDA:0,_ZN5mongo13PiggyBackDataD2Ev
FNDA:0,_ZN5mongo13PiggyBackData5flushEv
FNDA:80,_ZN5mongo13MessagingPortD0Ev
FNDA:0,_ZN5mongo5Ports8closeAllEj
FNDA:0,_ZN5mongo21AbstractMessagingPort15setConnectionIdEx
FNDA:80,_ZN5mongo5Ports5eraseEPNS_13MessagingPortE
FNDA:0,_ZN5mongo13PiggyBackData6appendERNS_7MessageE
FNDA:28,_GLOBAL__sub_I_message_port.cpp
FNDA:0,_ZN5mongo13MessagingPortC2EN5boost10shared_ptrINS_6SocketEEE
FNDA:0,_ZNK5mongo13MessagingPort9localAddrEv
FNDA:0,_ZN5mongo13MessagingPort5replyERNS_7MessageES2_
FNDA:118,_ZN5mongo13MessagingPort4recvERNS_7MessageE
FNDA:0,_ZN5mongo13MessagingPort9piggyBackERNS_7MessageEi
FNDA:0,_ZN5mongo13MessagingPort15closeAllSocketsEj
FNDA:28,_Z41__static_initialization_and_destruction_0ii
FNDA:118,_ZN5mongo13MessagingPort4recvERKNS_7MessageERS1_
FNDA:79,_ZN5mongo13MessagingPort16setSocketTimeoutEd
FNDA:80,_ZN5mongo5Ports6insertEPNS_13MessagingPortE
FNDA:100218,_ZN5mongo13MessagingPort3sayERNS_7MessageEi
FNDA:28,_ZN5mongo5PortsC2Ev
FNDA:80,_ZN5mongo13MessagingPortC2EdNS_6logger11LogSeverityE
FNDA:0,_ZN5mongo13MessagingPortC2EiRKNS_8SockAddrE
FNDA:121,_ZN5mongo13MessagingPort4callERNS_7MessageES2_
FNDA:80,_ZN5mongo13MessagingPortD2Ev
FNDA:0,_ZNK5mongo13MessagingPort10remoteAddrEv
FNDA:1,_ZNK5mongo13MessagingPort6remoteEv
FNF:28
FNH:15
DA:51,0
DA:52,0
DA:53,0
DA:54,0
DA:61,0
DA:62,0
DA:63,0
DA:66,0
DA:67,0
DA:71,0
DA:73,0
DA:74,0
DA:76,0
DA:77,0
DA:79,0
DA:80,0
DA:81,0
DA:83,0
DA:84,0
DA:85,0
DA:87,0
DA:88,0
DA:91,0
DA:103,56
DA:104,0
DA:105,0
DA:106,0
DA:107,0
DA:109,0
DA:111,0
DA:112,80
DA:113,80
DA:114,80
DA:115,80
DA:116,80
DA:117,80
DA:118,80
DA:119,80
DA:124,28
DA:126,0
DA:127,0
DA:128,0
DA:130,0
DA:131,0
DA:132,0
DA:133,0
DA:135,80
DA:136,160
DA:137,80
DA:138,80
DA:139,80
DA:141,0
DA:142,0
DA:143,0
DA:144,0
DA:146,79
DA:147,158
DA:148,79
DA:150,80
DA:151,160
DA:152,80
DA:154,400
DA:155,80
DA:156,0
DA:157,80
DA:158,80
DA:159,160
DA:161,118
DA:166,118
DA:167,588
DA:168,117
DA:170,117
DA:172,1
DA:173,0
DA:174,0
DA:175,0
DA:177,0
DA:178,0
DA:180,117
DA:182,0
DA:183,0
DA:184,0
DA:188,351
DA:195,0
DA:196,0
DA:198,0
DA:200,0
DA:201,0
DA:204,0
DA:205,0
DA:208,117
DA:209,0
DA:210,0
DA:214,351
DA:215,117
DA:216,117
DA:217,117
DA:218,117
DA:219,117
DA:221,117
DA:222,117
DA:224,351
DA:227,117
DA:231,2
DA:232,3
DA:233,1
DA:235,6
DA:236,1
DA:241,0
DA:242,0
DA:243,0
DA:245,0
DA:246,0
DA:247,0
DA:249,121
DA:251,121
DA:252,118
DA:255,118
DA:257,118
DA:258,118
DA:263,351
DA:265,0
DA:266,0
DA:267,0
DA:268,0
DA:269,0
DA:270,0
DA:271,0
DA:272,0
DA:279,100218
DA:280,100218
DA:282,100218
DA:283,200436
DA:285,100218
DA:287,0
DA:289,0
DA:292,0
DA:293,0
DA:294,100215
DA:298,100218
DA:301,0
DA:303,0
DA:305,0
DA:306,0
DA:310,0
DA:311,0
DA:313,0
DA:314,0
DA:316,0
DA:319,1
DA:320,1
DA:321,4
DA:322,2
DA:325,0
DA:326,0
DA:329,0
DA:330,0
DA:333,84
LF:158
LH:69
end_of_record
TN:
SF:/home/tbrock/Code/mongo-cxx-driver/src/mongo/util/net/message_port.h
FN:35,_ZN5mongo21AbstractMessagingPortD2Ev
FN:35,_ZN5mongo21AbstractMessagingPortD0Ev
FN:107,_ZNK5mongo13MessagingPort10remotePortEv
FN:114,_ZN5mongo13MessagingPort4sendEPKciS2_
FN:117,_ZN5mongo13MessagingPort4sendERKSt6vectorISt4pairIPciESaIS4_EEPKc
FN:120,_ZN5mongo13MessagingPort7connectERNS_8SockAddrE
FN:131,_ZN5mongo13MessagingPort6secureEPNS_19SSLManagerInterfaceERKSs
FN:136,_ZN5mongo13MessagingPort16isStillConnectedEv
FN:140,_ZNK5mongo13MessagingPort23getSockCreationMicroSecEv
FNDA:0,_ZN5mongo21AbstractMessagingPortD2Ev
FNDA:100218,_ZN5mongo13MessagingPort4sendEPKciS2_
FNDA:34,_ZN5mongo13MessagingPort16isStillConnectedEv
FNDA:146,_ZNK5mongo13MessagingPort23getSockCreationMicroSecEv
FNDA:0,_ZN5mongo13MessagingPort4sendERKSt6vectorISt4pairIPciESaIS4_EEPKc
FNDA:0,_ZN5mongo13MessagingPort6secureEPNS_19SSLManagerInterfaceERKSs
FNDA:80,_ZN5mongo13MessagingPort7connectERNS_8SockAddrE
FNDA:0,_ZN5mongo21AbstractMessagingPortD0Ev
FNDA:0,_ZNK5mongo13MessagingPort10remotePortEv
FNF:9
FNH:4
DA:34,80
DA:35,80
DA:45,0
DA:107,0
DA:114,100218
DA:115,200436
DA:116,100215
DA:117,0
DA:118,0
DA:119,0
DA:120,80
DA:121,160
DA:131,0
DA:132,0
DA:136,34
DA:137,68
DA:140,146
DA:141,292
LF:18
LH:11
end_of_record
TN:
SF:/home/tbrock/Code/mongo-cxx-driver/src/mongo/util/net/sock.cpp
FN:50,_ZN5mongo40_mongoInitializerFunction_throwSockExcepEPNS_18InitializerContextE
FN:50,_Z41__static_initialization_and_destruction_0ii
FN:53,_ZN5mongo10enableIPv6Eb
FN:54,_ZN5mongo11IPv6EnabledEv
FN:56,_ZN5mongo15setSockTimeoutsEid
FN:86,_ZN5mongo12disableNagleEi
FN:131,_ZN5mongo19getAddrInfoStrErrorEi
FN:142,_ZN5mongo8SockAddrC2Ei
FN:150,_ZN5mongo8SockAddrC2EPKci
FN:211,_ZNK5mongo8SockAddr11isLocalHostEv
FN:222,_ZNK5mongo8SockAddr8toStringEb
FN:229,_ZNK5mongo8SockAddr7getTypeEv
FN:233,_ZNK5mongo8SockAddr7getPortEv
FN:243,_ZNK5mongo8SockAddr7getAddrEv
FN:264,_ZNK5mongo8SockAddreqERKS0_
FN:288,_ZNK5mongo8SockAddrneERKS0_
FN:292,_ZNK5mongo8SockAddrltERKS0_
FN:322,_ZN5mongo16makeUnixSockPathEi
FN:330,_ZN5mongo10hostbynameEPKc
FN:340,_ZN5mongo11getHostNameEv
FN:360,_ZNK5mongo15SocketException8toStringEv
FN:379,_ZN5mongoL28getLocalAddrForBoundSocketFdEi
FN:394,_ZN5mongo6SocketC2EiRKNS_8SockAddrE
FN:403,_ZN5mongo6SocketC2EdNS_6logger11LogSeverityE
FN:410,_ZN5mongo6SocketD2Ev
FN:414,_ZN5mongo6Socket5_initEv
FN:423,_ZN5mongo6Socket5closeEv
FN:446,_ZN5mongo6Socket6secureEPNS_19SSLManagerInterfaceERKSs
FN:457,_ZN5mongo6Socket14secureAcceptedEPNS_19SSLManagerInterfaceE
FN:461,_ZN5mongo6Socket14doSSLHandshakeEPKci
FN:474,_ZN5mongo9ConnectBGD0Ev
FN:474,_ZN5mongo9ConnectBGD2Ev
FN:476,_ZN5mongo6Socket7connectERNS_8SockAddrE
FN:478,_ZN5mongo9ConnectBG3runEv
FN:483,_ZNK5mongo9ConnectBG4nameEv
FN:544,_ZN5mongo6Socket5_sendEPKciS2_
FN:558,_ZN5mongo6Socket4sendEPKciS2_
FN:582,_ZN5mongo6Socket5_sendERKSt6vectorISt4pairIPciESaIS4_EEPKc
FN:595,_ZN5mongo6Socket4sendERKSt6vectorISt4pairIPciESaIS4_EEPKc
FN:669,_ZN5mongo6Socket4recvEPci
FN:693,_ZN5mongo6Socket11unsafe_recvEPci
FN:700,_ZN5mongo6Socket5_recvEPci
FN:714,_ZN5mongo6Socket15handleSendErrorEiPKc
FN:734,_ZN5mongo6Socket15handleRecvErrorEii
FN:769,_ZN5mongo6Socket10setTimeoutEd
FN:786,_ZN5mongo6Socket16isStillConnectedEv
FN:918,_GLOBAL__sub_I_sock.cpp
FNDA:4,_ZN5mongo6Socket15handleRecvErrorEii
FNDA:277,_ZN5mongo6Socket5_recvEPci
FNDA:100233,_ZN5mongo6Socket4sendEPKciS2_
FNDA:81,_ZNK5mongo9ConnectBG4nameEv
FNDA:81,_ZN5mongo6SocketC2EdNS_6logger11LogSeverityE
FNDA:12,_ZN5mongo6SocketC2EiRKNS_8SockAddrE
FNDA:0,_ZNK5mongo8SockAddrneERKS0_
FNDA:0,_ZNK5mongo8SockAddreqERKS0_
FNDA:0,_ZN5mongo16makeUnixSockPathEi
FNDA:0,_ZN5mongo10hostbynameEPKc
FNDA:0,_ZN5mongo6Socket14doSSLHandshakeEPKci
FNDA:0,_ZN5mongo6Socket6secureEPNS_19SSLManagerInterfaceERKSs
FNDA:173,_ZN5mongo6Socket5closeEv
FNDA:247,_ZN5mongo6Socket4recvEPci
FNDA:109,_ZN5mongo11IPv6EnabledEv
FNDA:0,_ZN5mongo8SockAddrC2Ei
FNDA:0,_ZN5mongo11getHostNameEv
FNDA:81,_ZN5mongo9ConnectBGD2Ev
FNDA:93,_ZN5mongo6SocketD2Ev
FNDA:81,_ZN5mongo9ConnectBG3runEv
FNDA:0,_ZN5mongo10enableIPv6Eb
FNDA:80,_ZN5mongo6Socket10setTimeoutEd
FNDA:81,_ZN5mongo12disableNagleEi
FNDA:100228,_ZN5mongo6Socket5_sendEPKciS2_
FNDA:109,_ZN5mongo8SockAddrC2EPKci
FNDA:28,_Z41__static_initialization_and_destruction_0ii
FNDA:0,_ZN5mongo6Socket14secureAcceptedEPNS_19SSLManagerInterfaceE
FNDA:0,_ZNK5mongo8SockAddrltERKS0_
FNDA:81,_ZN5mongo6Socket7connectERNS_8SockAddrE
FNDA:28,_GLOBAL__sub_I_sock.cpp
FNDA:10,_ZNK5mongo8SockAddr7getPortEv
FNDA:0,_ZN5mongo6Socket5_sendERKSt6vectorISt4pairIPciESaIS4_EEPKc
FNDA:1,_ZNK5mongo15SocketException8toStringEv
FNDA:5,_ZN5mongo6Socket15handleSendErrorEiPKc
FNDA:0,_ZN5mongo19getAddrInfoStrErrorEi
FNDA:28,_ZN5mongo40_mongoInitializerFunction_throwSockExcepEPNS_18InitializerContextE
FNDA:93,_ZN5mongo6Socket5_initEv
FNDA:0,_ZN5mongo9ConnectBGD0Ev
FNDA:21,_ZNK5mongo8SockAddr8toStringEb
FNDA:0,_ZNK5mongo8SockAddr11isLocalHostEv
FNDA:93,_ZN5mongoL28getLocalAddrForBoundSocketFdEi
FNDA:102,_ZNK5mongo8SockAddr7getAddrEv
FNDA:80,_ZN5mongo15setSockTimeoutsEid
FNDA:4,_ZN5mongo6Socket4sendERKSt6vectorISt4pairIPciESaIS4_EEPKc
FNDA:316,_ZNK5mongo8SockAddr7getTypeEv
FNDA:34,_ZN5mongo6Socket16isStillConnectedEv
FNDA:277,_ZN5mongo6Socket11unsafe_recvEPci
FNF:47
FNH:32
DA:50,168
DA:53,0
DA:54,109
DA:56,80
DA:58,80
DA:59,80
DA:60,160
DA:69,80
DA:70,80
DA:71,80
DA:74,80
DA:86,81
DA:87,81
DA:90,81
DA:95,81
DA:96,0
DA:99,81
DA:100,0
DA:103,81
DA:104,81
DA:105,0
DA:107,81
DA:108,81
DA:109,81
DA:110,0
DA:114,81
DA:115,81
DA:116,0
DA:118,81
DA:119,0
DA:120,0
DA:121,0
DA:127,81
DA:131,0
DA:133,0
DA:142,0
DA:143,0
DA:144,0
DA:145,0
DA:146,0
DA:147,0
DA:148,0
DA:150,109
DA:151,109
DA:152,109
DA:156,109
DA:160,0
DA:161,0
DA:162,0
DA:163,0
DA:164,0
DA:167,109
DA:169,109
DA:170,109
DA:173,109
DA:174,109
DA:178,436
DA:182,109
DA:186,109
DA:188,1
DA:189,4
DA:192,109
DA:194,0
DA:196,0
DA:197,0
DA:199,0
DA:203,109
DA:204,109
DA:205,109
DA:206,109
DA:209,109
DA:211,0
DA:212,0
DA:213,0
DA:214,0
DA:216,0
DA:222,21
DA:223,21
DA:224,21
DA:225,54
DA:226,21
DA:229,316
DA:230,316
DA:233,10
DA:234,10
DA:235,10
DA:236,0
DA:239,0
DA:243,102
DA:244,102
DA:247,90
DA:249,90
DA:250,90
DA:251,90
DA:252,90
DA:256,0
DA:258,12
DA:260,0
DA:264,0
DA:265,0
DA:268,0
DA:271,0
DA:273,0
DA:277,0
DA:279,0
DA:283,0
DA:288,0
DA:289,0
DA:292,0
DA:293,0
DA:295,0
DA:298,0
DA:300,0
DA:303,0
DA:305,0
DA:309,0
DA:311,0
DA:315,0
DA:320,28
DA:322,0
DA:323,0
DA:324,0
DA:330,0
DA:331,0
DA:332,0
DA:333,0
DA:335,0
DA:340,0
DA:342,0
DA:343,0
DA:344,0
DA:345,0
DA:347,0
DA:360,1
DA:361,1
DA:362,3
DA:364,2
DA:365,2
DA:367,2
DA:368,0
DA:370,1
DA:379,0
DA:383,93
DA:385,93
DA:386,93
DA:387,0
DA:388,0
DA:389,0
DA:391,93
DA:394,12
DA:395,12
DA:396,48
DA:397,12
DA:398,12
DA:399,12
DA:401,12
DA:403,324
DA:404,81
DA:405,81
DA:406,81
DA:407,81
DA:408,81
DA:410,186
DA:411,93
DA:412,93
DA:414,93
DA:415,93
DA:416,93
DA:417,93
DA:419,93
DA:421,93
DA:423,173
DA:424,173
DA:426,186
DA:428,0
DA:438,93
DA:440,93
DA:441,93
DA:443,173
DA:446,0
DA:447,0
DA:448,0
DA:451,0
DA:452,0
DA:453,0
DA:454,0
DA:457,0
DA:458,0
DA:459,0
DA:461,0
DA:462,0
DA:463,0
DA:464,0
DA:466,0
DA:467,0
DA:469,0
DA:470,0
DA:474,162
DA:476,81
DA:478,81
DA:479,81
DA:480,162
DA:481,81
DA:483,81
DA:484,0
DA:494,81
DA:495,81
DA:497,81
DA:498,81
DA:499,0
DA:503,81
DA:504,1
DA:507,81
DA:508,81
DA:509,81
DA:510,81
DA:511,0
DA:512,0
DA:513,0
DA:514,0
DA:520,0
DA:521,0
DA:525,81
DA:526,81
DA:534,81
DA:536,81
DA:538,81
DA:540,81
DA:544,100228
DA:546,200456
DA:547,0
DA:550,100228
DA:551,100228
DA:552,0
DA:558,100233
DA:559,300694
DA:560,100233
DA:561,100233
DA:565,5
DA:567,5
DA:570,100228
DA:573,100228
DA:575,100228
DA:576,100228
DA:577,100228
DA:580,100228
DA:582,0
DA:583,0
DA:584,0
DA:586,0
DA:587,0
DA:588,0
DA:590,0
DA:595,24
DA:598,8
DA:599,0
DA:600,2
DA:608,16
DA:609,4
DA:610,16
DA:611,16
DA:613,4
DA:614,8
DA:615,8
DA:616,4
DA:617,4
DA:621,4
DA:622,4
DA:623,8
DA:625,10
DA:626,4
DA:627,4
DA:631,2
DA:635,2
DA:638,4
DA:639,2
DA:640,12
DA:641,8
DA:642,8
DA:645,0
DA:646,0
DA:647,0
DA:652,4
DA:653,2
DA:654,0
DA:655,0
DA:656,0
DA:659,2
DA:660,2
DA:661,2
DA:669,247
DA:670,738
DA:671,247
DA:672,247
DA:676,2
DA:679,2
DA:680,0
DA:684,245
DA:687,244
DA:688,244
DA:689,244
DA:691,244
DA:693,277
DA:694,277
DA:695,275
DA:696,275
DA:700,277
DA:702,554
DA:703,0
DA:706,277
DA:707,277
DA:708,2
DA:709,0
DA:714,5
DA:720,5
DA:721,5
DA:723,0
DA:724,0
DA:725,0
DA:728,30
DA:729,20
DA:730,20
DA:734,4
DA:735,4
DA:736,1
DA:737,4
DA:744,3
DA:746,3
DA:747,0
DA:748,0
DA:757,3
DA:760,6
DA:761,4
DA:764,8
DA:765,10
DA:766,8
DA:769,80
DA:770,80
DA:771,80
DA:786,34
DA:789,34
DA:791,34
DA:792,34
DA:795,34
DA:797,0
DA:802,0
DA:804,0
DA:807,0
DA:809,0
DA:810,0
DA:812,0
DA:814,0
DA:818,0
DA:820,0
DA:821,0
DA:822,0
DA:823,0
DA:826,0
DA:835,0
DA:840,0
DA:843,0
DA:845,0
DA:847,0
DA:848,0
DA:849,0
DA:850,0
DA:852,0
DA:856,0
DA:857,0
DA:858,0
DA:859,0
DA:868,0
DA:869,0
DA:870,0
DA:873,0
DA:875,0
DA:876,0
DA:879,0
DA:881,0
DA:882,0
DA:885,0
DA:888,0
DA:889,0
DA:890,0
DA:896,0
DA:897,0
DA:898,0
DA:918,84
LF:388
LH:219
end_of_record
TN:
SF:/home/tbrock/Code/mongo-cxx-driver/src/mongo/util/net/sock.h
FN:144,_ZN5mongo15SocketExceptionC2ENS0_4TypeERKSsiS3_
FN:151,_ZN5mongo15SocketExceptionD0Ev
FN:151,_ZN5mongo15SocketExceptionD2Ev
FN:155,_ZNK5mongo15SocketException6serverEv
FN:159,_ZN5mongo15SocketException14_getStringTypeENS0_4TypeE
FNDA:17,_ZN5mongo15SocketExceptionC2ENS0_4TypeERKSsiS3_
FNDA:17,_ZN5mongo15SocketExceptionD2Ev
FNDA:0,_ZN5mongo15SocketExceptionD0Ev
FNDA:18,_ZN5mongo15SocketException14_getStringTypeENS0_4TypeE
FNDA:0,_ZNK5mongo15SocketException6serverEv
FNF:5
FNH:3
DA:74,93
DA:95,100661
DA:96,100661
DA:97,100556
DA:144,17
DA:145,102
DA:148,34
DA:149,17
DA:151,51
DA:155,0
DA:159,18
DA:160,18
DA:161,7
DA:162,2
DA:163,7
DA:164,2
DA:165,0
DA:166,0
DA:167,0
DA:168,0
DA:211,1
DA:212,21
DA:213,0
DA:215,0
DA:226,117
LF:25
LH:18
end_of_record
TN:
SF:/home/tbrock/Code/mongo-cxx-driver/src/mongo/util/net/socket_poll.cpp
FN:50,_ZN5mongo15isPollSupportedEv
FN:52,_ZN5mongo10socketPollEP6pollfdmi
FN:63,_ZN5mongo52_mongoInitializerFunctionAssure_util_net_socket_pollEv
FN:63,_Z41__static_initialization_and_destruction_0ii
FN:63,_GLOBAL__sub_I_socket_poll.cpp
FNDA:34,_ZN5mongo15isPollSupportedEv
FNDA:0,_ZN5mongo10socketPollEP6pollfdmi
FNDA:28,_GLOBAL__sub_I_socket_poll.cpp
FNDA:0,_ZN5mongo52_mongoInitializerFunctionAssure_util_net_socket_pollEv
FNDA:28,_Z41__static_initialization_and_destruction_0ii
FNF:5
FNH:3
DA:50,34
DA:52,0
DA:53,0
DA:63,84
LF:4
LH:2
end_of_record
TN:
SF:/home/tbrock/Code/mongo-cxx-driver/src/mongo/util/net/ssl_manager.cpp
FN:41,_Z41__static_initialization_and_destruction_0ii
FN:48,_ZN5mongo13getSSLVersionERKSsS1_
FN:71,_ZN5mongo12_GLOBAL__N_113SSLThreadInfoC2Ev
FN:78,_ZN5mongo12_GLOBAL__N_116_ssl_id_callbackEv
FN:80,_ZN5mongo12_GLOBAL__N_113SSLThreadInfo13lock_callbackEiiPKci.isra.24
FN:89,_ZN5mongo12_GLOBAL__N_113SSLThreadInfo4initEv
FN:94,_ZN5mongo12_GLOBAL__N_113SSLThreadInfo3getEv
FN:118,_ZN5mongo12_GLOBAL__N_121_ssl_locking_callbackEiiPKci
FN:132,_ZN5mongo12_GLOBAL__N_16ParamsD2Ev
FN:133,_ZN5mongo12_GLOBAL__N_16ParamsC2ERKSsS3_S3_S3_S3_S3_bbb
FN:178,_ZN5mongo12_GLOBAL__N_110SSLManager20getServerSubjectNameEv
FN:182,_ZN5mongo12_GLOBAL__N_110SSLManager20getClientSubjectNameEv
FN:284,_ZN5mongo36_mongoInitializerFunction_SSLManagerEPNS_18InitializerContextE
FN:302,_ZN5mongo13getSSLManagerEv
FN:309,_ZN5mongo25getCertificateSubjectNameEP7x509_st
FN:332,_ZN5mongo13SSLConnectionC2EP10ssl_ctx_stPNS_6SocketEPKci
FN:358,_ZN5mongo13SSLConnectionD2Ev
FN:367,_ZN5mongo19SSLManagerInterfaceD0Ev
FN:367,_ZN5mongo19SSLManagerInterfaceD2Ev
FN:369,_ZN5mongo12_GLOBAL__N_110SSLManagerC2ERKNS0_6ParamsEb
FN:430,_ZN5mongo12_GLOBAL__N_110SSLManagerD0Ev
FN:430,_ZN5mongo12_GLOBAL__N_110SSLManagerD2Ev
FN:443,_ZN5mongo12_GLOBAL__N_110SSLManager11password_cbEPciiPv
FN:452,_ZN5mongo12_GLOBAL__N_110SSLManager9verify_cbEiP17x509_store_ctx_st
FN:456,_ZN5mongo12_GLOBAL__N_110SSLManager8SSL_readEPNS_13SSLConnectionEPvi
FN:467,_ZN5mongo12_GLOBAL__N_110SSLManager9SSL_writeEPNS_13SSLConnectionEPKvi
FN:478,_ZN5mongo12_GLOBAL__N_110SSLManager13ERR_get_errorEv
FN:482,_ZN5mongo12_GLOBAL__N_110SSLManager16ERR_error_stringEmPc
FN:486,_ZN5mongo12_GLOBAL__N_110SSLManager13SSL_get_errorEPKNS_13SSLConnectionEi
FN:490,_ZN5mongo12_GLOBAL__N_110SSLManager12SSL_shutdownEPNS_13SSLConnectionE
FN:501,_ZN5mongo12_GLOBAL__N_110SSLManager8SSL_freeEPNS_13SSLConnectionE
FN:505,_ZN5mongo12_GLOBAL__N_110SSLManager10_setupFIPSEv.isra.22
FN:521,_ZN5mongo12_GLOBAL__N_110SSLManager15_initSSLContextEPP10ssl_ctx_stRKNS0_6ParamsE
FN:576,_ZN5mongo12_GLOBAL__N_110SSLManager15_setSubjectNameERKSsRSs
FN:604,_ZN5mongo12_GLOBAL__N_110SSLManager9_setupPEMEP10ssl_ctx_stRKSsS5_
FN:638,_ZN5mongo12_GLOBAL__N_110SSLManager8_setupCAEP10ssl_ctx_stRKSs
FN:652,_ZN5mongo12_GLOBAL__N_110SSLManager9_setupCRLEP10ssl_ctx_stRKSs
FN:676,_ZN5mongo12_GLOBAL__N_110SSLManager16_flushNetworkBIOEPNS_13SSLConnectionE.isra.39
FN:722,_ZN5mongo12_GLOBAL__N_110SSLManager14_doneWithSSLOpEPNS_13SSLConnectionEi
FN:737,_ZN5mongo12_GLOBAL__N_110SSLManager7connectEPNS_6SocketE
FN:755,_ZN5mongo12_GLOBAL__N_110SSLManager6acceptEPNS_6SocketEPKci
FN:774,_ZN5mongo12_GLOBAL__N_110SSLManager14_hostNameMatchEPKcS3_.isra.7
FN:791,_ZN5mongo12_GLOBAL__N_110SSLManager31parseAndValidatePeerCertificateEPKNS_13SSLConnectionERKSs
FN:878,_ZN5mongo12_GLOBAL__N_110SSLManager19cleanupThreadLocalsEv
FN:882,_ZN5mongo12_GLOBAL__N_110SSLManager18getSSLErrorMessageEi
FN:891,_ZN5mongo12_GLOBAL__N_110SSLManager15_handleSSLErrorEii
FN:936,_GLOBAL__sub_I_ssl_manager.cpp
FN:936,_ZN5mongo52_mongoInitializerFunctionAssure_util_net_ssl_managerEv
FNDA:0,_ZN5mongo12_GLOBAL__N_110SSLManagerD2Ev
FNDA:0,_ZN5mongo12_GLOBAL__N_110SSLManagerD0Ev
FNDA:0,_ZN5mongo12_GLOBAL__N_110SSLManager19cleanupThreadLocalsEv
FNDA:0,_ZN5mongo12_GLOBAL__N_110SSLManager20getClientSubjectNameEv
FNDA:28,_ZN5mongo36_mongoInitializerFunction_SSLManagerEPNS_18InitializerContextE
FNDA:0,_ZN5mongo13getSSLVersionERKSsS1_
FNDA:0,_ZN5mongo12_GLOBAL__N_16ParamsD2Ev
FNDA:0,_ZN5mongo12_GLOBAL__N_110SSLManager9_setupPEMEP10ssl_ctx_stRKSsS5_
FNDA:0,_ZN5mongo13SSLConnectionD2Ev
FNDA:0,_ZN5mongo12_GLOBAL__N_110SSLManager16ERR_error_stringEmPc
FNDA:0,_ZN5mongo12_GLOBAL__N_110SSLManager8SSL_freeEPNS_13SSLConnectionE
FNDA:0,_ZN5mongo12_GLOBAL__N_110SSLManager12SSL_shutdownEPNS_13SSLConnectionE
FNDA:0,_ZN5mongo12_GLOBAL__N_110SSLManager7connectEPNS_6SocketE
FNDA:0,_ZN5mongo12_GLOBAL__N_113SSLThreadInfo3getEv
FNDA:0,_ZN5mongo12_GLOBAL__N_121_ssl_locking_callbackEiiPKci
FNDA:0,_ZN5mongo19SSLManagerInterfaceD2Ev
FNDA:28,_Z41__static_initialization_and_destruction_0ii
FNDA:0,_ZN5mongo12_GLOBAL__N_110SSLManager20getServerSubjectNameEv
FNDA:0,_ZN5mongo12_GLOBAL__N_110SSLManager15_initSSLContextEPP10ssl_ctx_stRKNS0_6ParamsE
FNDA:0,_ZN5mongo12_GLOBAL__N_110SSLManager11password_cbEPciiPv
FNDA:0,_ZN5mongo12_GLOBAL__N_110SSLManager10_setupFIPSEv.isra.22
FNDA:0,_ZN5mongo12_GLOBAL__N_110SSLManager18getSSLErrorMessageEi
FNDA:0,_ZN5mongo12_GLOBAL__N_110SSLManager8_setupCAEP10ssl_ctx_stRKSs
FNDA:0,_ZN5mongo12_GLOBAL__N_110SSLManager6acceptEPNS_6SocketEPKci
FNDA:0,_ZN5mongo12_GLOBAL__N_110SSLManager14_doneWithSSLOpEPNS_13SSLConnectionEi
FNDA:0,_ZN5mongo12_GLOBAL__N_110SSLManager14_hostNameMatchEPKcS3_.isra.7
FNDA:110,_ZN5mongo13getSSLManagerEv
FNDA:0,_ZN5mongo19SSLManagerInterfaceD0Ev
FNDA:0,_ZN5mongo12_GLOBAL__N_110SSLManager9verify_cbEiP17x509_store_ctx_st
FNDA:0,_ZN5mongo12_GLOBAL__N_110SSLManager13ERR_get_errorEv
FNDA:0,_ZN5mongo12_GLOBAL__N_110SSLManager9SSL_writeEPNS_13SSLConnectionEPKvi
FNDA:0,_ZN5mongo12_GLOBAL__N_113SSLThreadInfo13lock_callbackEiiPKci.isra.24
FNDA:0,_ZN5mongo12_GLOBAL__N_116_ssl_id_callbackEv
FNDA:0,_ZN5mongo12_GLOBAL__N_110SSLManager15_setSubjectNameERKSsRSs
FNDA:0,_ZN5mongo12_GLOBAL__N_113SSLThreadInfo4initEv
FNDA:0,_ZN5mongo12_GLOBAL__N_110SSLManager13SSL_get_errorEPKNS_13SSLConnectionEi
FNDA:0,_ZN5mongo12_GLOBAL__N_16ParamsC2ERKSsS3_S3_S3_S3_S3_bbb
FNDA:0,_ZN5mongo12_GLOBAL__N_110SSLManager8SSL_readEPNS_13SSLConnectionEPvi
FNDA:0,_ZN5mongo25getCertificateSubjectNameEP7x509_st
FNDA:0,_ZN5mongo13SSLConnectionC2EP10ssl_ctx_stPNS_6SocketEPKci
FNDA:0,_ZN5mongo12_GLOBAL__N_110SSLManager9_setupCRLEP10ssl_ctx_stRKSs
FNDA:0,_ZN5mongo12_GLOBAL__N_110SSLManagerC2ERKNS0_6ParamsEb
FNDA:0,_ZN5mongo12_GLOBAL__N_113SSLThreadInfoC2Ev
FNDA:0,_ZN5mongo52_mongoInitializerFunctionAssure_util_net_ssl_managerEv
FNDA:0,_ZN5mongo12_GLOBAL__N_110SSLManager31parseAndValidatePeerCertificateEPKNS_13SSLConnectionERKSs
FNDA:0,_ZN5mongo12_GLOBAL__N_110SSLManager16_flushNetworkBIOEPNS_13SSLConnectionE.isra.39
FNDA:28,_GLOBAL__sub_I_ssl_manager.cpp
FNDA:0,_ZN5mongo12_GLOBAL__N_110SSLManager15_handleSSLErrorEii
FNF:48
FNH:4
DA:41,28
DA:48,0
DA:49,0
DA:71,0
DA:72,0
DA:73,0
DA:78,0
DA:80,0
DA:81,0
DA:82,0
DA:85,0
DA:87,0
DA:89,0
DA:90,0
DA:91,0
DA:92,0
DA:94,0
DA:95,0
DA:96,0
DA:97,0
DA:98,0
DA:100,0
DA:114,0
DA:115,0
DA:118,0
DA:119,0
DA:120,0
DA:123,28
DA:124,28
DA:128,28
DA:132,0
DA:133,0
DA:150,0
DA:178,0
DA:179,0
DA:182,0
DA:183,0
DA:284,140
DA:286,28
DA:296,0
DA:297,0
DA:299,28
DA:302,110
DA:304,110
DA:305,0
DA:309,0
DA:312,0
DA:313,0
DA:314,0
DA:316,0
DA:319,0
DA:320,0
DA:321,0
DA:322,0
DA:326,0
DA:329,0
DA:332,0
DA:335,0
DA:338,0
DA:340,0
DA:342,0
DA:343,0
DA:344,0
DA:346,0
DA:347,0
DA:349,0
DA:350,0
DA:351,0
DA:352,0
DA:353,0
DA:356,0
DA:358,0
DA:359,0
DA:360,0
DA:362,0
DA:363,0
DA:365,0
DA:367,0
DA:369,0
DA:372,0
DA:374,0
DA:375,0
DA:376,0
DA:378,0
DA:379,0
DA:384,0
DA:387,0
DA:388,0
DA:390,0
DA:391,0
DA:393,0
DA:394,0
DA:398,0
DA:399,0
DA:401,0
DA:402,0
DA:403,0
DA:408,0
DA:409,0
DA:410,0
DA:413,0
DA:414,0
DA:417,0
DA:418,0
DA:419,0
DA:423,0
DA:424,0
DA:428,0
DA:430,0
DA:431,0
DA:432,0
DA:433,0
DA:435,0
DA:436,0
DA:438,0
DA:439,0
DA:441,0
DA:443,0
DA:445,0
DA:446,0
DA:447,0
DA:448,0
DA:449,0
DA:452,0
DA:453,0
DA:456,0
DA:458,0
DA:459,0
DA:460,0
DA:462,0
DA:463,0
DA:464,0
DA:467,0
DA:469,0
DA:470,0
DA:471,0
DA:473,0
DA:474,0
DA:475,0
DA:478,0
DA:479,0
DA:482,0
DA:483,0
DA:486,0
DA:487,0
DA:490,0
DA:492,0
DA:493,0
DA:494,0
DA:496,0
DA:497,0
DA:498,0
DA:501,0
DA:502,0
DA:505,0
DA:516,0
DA:517,0
DA:521,0
DA:522,0
DA:523,0
DA:526,0
DA:530,0
DA:536,0
DA:540,0
DA:543,0
DA:546,0
DA:547,0
DA:548,0
DA:553,0
DA:554,0
DA:555,0
DA:560,0
DA:562,0
DA:567,0
DA:568,0
DA:576,0
DA:578,0
DA:579,0
DA:580,0
DA:581,0
DA:582,0
DA:584,0
DA:586,0
DA:587,0
DA:588,0
DA:589,0
DA:592,0
DA:593,0
DA:594,0
DA:595,0
DA:596,0
DA:598,0
DA:599,0
DA:601,0
DA:604,0
DA:607,0
DA:609,0
DA:610,0
DA:611,0
DA:612,0
DA:617,0
DA:618,0
DA:619,0
DA:622,0
DA:623,0
DA:624,0
DA:625,0
DA:629,0
DA:630,0
DA:632,0
DA:638,0
DA:640,0
DA:641,0
DA:642,0
DA:643,0
DA:647,0
DA:648,0
DA:649,0
DA:652,0
DA:653,0
DA:654,0
DA:656,0
DA:657,0
DA:658,0
DA:660,0
DA:661,0
DA:662,0
DA:663,0
DA:664,0
DA:666,0
DA:667,0
DA:669,0
DA:676,0
DA:684,0
DA:685,0
DA:686,0
DA:688,0
DA:691,0
DA:692,0
DA:693,0
DA:694,0
DA:695,0
DA:697,0
DA:702,0
DA:704,0
DA:705,0
DA:708,0
DA:709,0
DA:710,0
DA:714,0
DA:715,0
DA:716,0
DA:717,0
DA:720,0
DA:722,0
DA:723,0
DA:724,0
DA:726,0
DA:727,0
DA:730,0
DA:731,0
DA:737,0
DA:738,0
DA:739,0
DA:740,0
DA:743,0
DA:744,0
DA:745,0
DA:747,0
DA:748,0
DA:752,0
DA:755,0
DA:756,0
DA:757,0
DA:758,0
DA:761,0
DA:762,0
DA:763,0
DA:765,0
DA:766,0
DA:770,0
DA:774,0
DA:776,0
DA:781,0
DA:783,0
DA:784,0
DA:787,0
DA:791,0
DA:794,0
DA:796,0
DA:798,0
DA:799,0
DA:800,0
DA:803,0
DA:804,0
DA:806,0
DA:808,0
DA:810,0
DA:812,0
DA:813,0
DA:814,0
DA:815,0
DA:818,0
DA:819,0
DA:820,0
DA:825,0
DA:829,0
DA:830,0
DA:833,0
DA:834,0
DA:835,0
DA:837,0
DA:838,0
DA:843,0
DA:845,0
DA:846,0
DA:847,0
DA:849,0
DA:850,0
DA:851,0
DA:853,0
DA:854,0
DA:861,0
DA:863,0
DA:864,0
DA:865,0
DA:866,0
DA:869,0
DA:870,0
DA:871,0
DA:875,0
DA:878,0
DA:879,0
DA:880,0
DA:882,0
DA:887,0
DA:888,0
DA:891,0
DA:892,0
DA:894,0
DA:901,0
DA:902,0
DA:906,0
DA:911,0
DA:912,0
DA:914,0
DA:915,0
DA:918,0
DA:923,0
DA:924,0
DA:928,0
DA:929,0
DA:931,0
DA:936,84
LF:354
LH:10
end_of_record
TN:
SF:/home/tbrock/Code/mongo-cxx-driver/src/mongo/util/net/ssl_manager.h
FNF:0
FNH:0
DA:52,0
LF:1
LH:0
end_of_record
TN:
SF:/home/tbrock/Code/mongo-cxx-driver/src/mongo/util/net/ssl_options.h
FN:31,_ZN5mongo15SSLGlobalParamsD2Ev
FNDA:28,_ZN5mongo15SSLGlobalParamsD2Ev
FNF:1
FNH:1
DA:31,196
DA:44,196
DA:45,28
LF:3
LH:3
end_of_record
TN:
SF:/home/tbrock/Code/mongo-cxx-driver/src/mongo/util/password_digest.cpp
FN:22,_ZN5mongo20createPasswordDigestERKNS_10StringDataES2_
FNDA:2,_ZN5mongo20createPasswordDigestERKNS_10StringDataES2_
FNF:1
FNH:1
DA:22,4
DA:23,2
DA:28,2
DA:29,4
DA:30,2
DA:31,2
DA:32,4
DA:33,2
DA:35,2
LF:9
LH:9
end_of_record
TN:
SF:/home/tbrock/Code/mongo-cxx-driver/src/mongo/util/scopeguard.h
FN:110,_ZN5mongo18ScopeGuardImplBase11SafeExecuteINS_15ScopeGuardImpl1IPFvP7x509_stES4_EEEEvRT_
FN:110,_ZN5mongo18ScopeGuardImplBase11SafeExecuteINS_15ScopeGuardImpl1IPFiP6bio_stES4_EEEEvRT_
FN:110,_ZN5mongo18ScopeGuardImplBase11SafeExecuteINS_15ScopeGuardImpl1IPFvP6ssl_stES4_EEEEvRT_
FNDA:0,_ZN5mongo18ScopeGuardImplBase11SafeExecuteINS_15ScopeGuardImpl1IPFiP6bio_stES4_EEEEvRT_
FNDA:0,_ZN5mongo18ScopeGuardImplBase11SafeExecuteINS_15ScopeGuardImpl1IPFvP6ssl_stES4_EEEEvRT_
FNDA:0,_ZN5mongo18ScopeGuardImplBase11SafeExecuteINS_15ScopeGuardImpl1IPFvP7x509_stES4_EEEEvRT_
FNF:3
FNH:0
DA:110,0
DA:112,0
DA:115,0
DA:119,0
DA:124,117
DA:129,117
DA:189,0
DA:190,0
DA:194,0
DA:198,234
LF:10
LH:3
end_of_record
TN:
SF:/home/tbrock/Code/mongo-cxx-driver/src/mongo/util/string_map.h
FN:46,_ZN5mongo9StringMapIN5boost10shared_ptrINS_17ReplicaSetMonitorEEEED2Ev
FN:46,_ZN5mongo9StringMapISt3setINS_11HostAndPortESt4lessIS2_ESaIS2_EEED2Ev
FNDA:28,_ZN5mongo9StringMapIN5boost10shared_ptrINS_17ReplicaSetMonitorEEEED2Ev
FNDA:28,_ZN5mongo9StringMapISt3setINS_11HostAndPortESt4lessIS2_ESaIS2_EEED2Ev
FNF:2
FNH:2
DA:41,28
DA:46,648
LF:2
LH:2
end_of_record
TN:
SF:/home/tbrock/Code/mongo-cxx-driver/src/mongo/util/stringutils.cpp
FN:39,_ZN5mongo15joinStringDelimERKSt6vectorISsSaISsEEPSsc
FN:46,_ZN5mongo9LexNumCmpC2Eb
FN:50,_ZN5mongo9LexNumCmp3cmpERKNS_10StringDataES3_b
FN:145,_ZNK5mongo9LexNumCmp3cmpERKNS_10StringDataES3_
FN:148,_ZNK5mongo9LexNumCmpclERKNS_10StringDataES3_
FN:152,_ZN5mongo10versionCmpENS_10StringDataES0_
FN:166,_GLOBAL__sub_I_stringutils.cpp
FN:166,_Z41__static_initialization_and_destruction_0ii
FNDA:28,_GLOBAL__sub_I_stringutils.cpp
FNDA:80351,_ZN5mongo9LexNumCmp3cmpERKNS_10StringDataES3_b
FNDA:80255,_ZNK5mongo9LexNumCmp3cmpERKNS_10StringDataES3_
FNDA:10,_ZN5mongo10versionCmpENS_10StringDataES0_
FNDA:0,_ZN5mongo15joinStringDelimERKSt6vectorISsSaISsEEPSsc
FNDA:80119,_ZNK5mongo9LexNumCmpclERKNS_10StringDataES3_
FNDA:0,_ZN5mongo16splitStringDelimERKSsPSt6vectorISsSaISsEEc
FNDA:10111,_ZN5mongo9LexNumCmpC2Eb
FNDA:28,_Z41__static_initialization_and_destruction_0ii
FNF:9
FNH:7
DA:25,0
DA:26,0
DA:27,0
DA:29,0
DA:30,0
DA:31,0
DA:32,0
DA:33,0
DA:34,0
DA:36,0
DA:39,0
DA:40,0
DA:41,0
DA:42,0
DA:44,0
DA:46,10111
DA:47,10111
DA:48,10111
DA:50,243867
DA:51,80351
DA:53,80351
DA:54,80351
DA:56,241761
DA:57,161242
DA:58,161242
DA:59,80621
DA:61,80615
DA:63,80609
DA:64,84
DA:65,84
DA:66,84
DA:69,80525
DA:70,80525
DA:72,80525
DA:74,80525
DA:77,80522
DA:78,479
DA:79,479
DA:81,479
DA:83,237
DA:84,802
DA:85,1358
DA:88,237
DA:89,237
DA:91,2673
DA:92,3171
DA:94,237
DA:95,237
DA:99,237
DA:102,209
DA:107,166
DA:108,166
DA:109,332
DA:110,166
DA:121,242
DA:124,233
DA:128,80264
DA:131,40236
DA:134,219
DA:135,219
DA:138,180
DA:140,204
DA:142,114
DA:145,80255
DA:146,80255
DA:148,80119
DA:149,80119
DA:152,10
DA:153,10
DA:156,18
DA:157,10
DA:159,6
DA:160,6
DA:163,5
DA:166,84
LF:75
LH:60
end_of_record
TN:
SF:/home/tbrock/Code/mongo-cxx-driver/src/mongo/util/text.cpp
FN:61,_ZN5mongo14StringSplitter5splitEv
FN:87,_ZN5mongo11isValidUTF8EPKc
FN:133,_ZN5mongo7parseLLEPKc
FN:368,_ZN5mongo31constructUtf8WindowsCommandLineERKSt6vectorISsSaISsEE
FN:383,_GLOBAL__sub_I_text.cpp
FN:383,_Z41__static_initialization_and_destruction_0ii
FNDA:0,_ZN5mongo31constructUtf8WindowsCommandLineERKSt6vectorISsSaISsEE
FNDA:28,_GLOBAL__sub_I_text.cpp
FNDA:0,_ZN5mongo11isValidUTF8EPKc
FNDA:0,_ZN5mongo14StringSplitter5splitERKSsS2_
FNDA:0,_ZN5mongo14StringSplitter5splitERSt6vectorISsSaISsEE
FNDA:0,_ZN5mongo14StringSplitter5splitEv
FNDA:0,_ZN5mongo14StringSplitter4joinERKSt6vectorISsSaISsEERKSs
FNDA:28,_Z41__static_initialization_and_destruction_0ii
FNDA:0,_ZN5mongo11isValidUTF8ERKSs
FNDA:0,_ZN5mongo14StringSplitter4nextEv
FNDA:0,_ZN5mongo7parseLLEPKc
FNDA:0,_ZN5mongoL26quoteForWindowsCommandLineERKSsRSo
FNF:12
FNH:2
DA:39,0
DA:40,0
DA:41,0
DA:42,0
DA:43,0
DA:44,0
DA:45,0
DA:46,0
DA:49,0
DA:50,0
DA:51,0
DA:55,0
DA:56,0
DA:57,0
DA:59,0
DA:61,0
DA:63,0
DA:64,0
DA:67,0
DA:68,0
DA:69,0
DA:70,0
DA:72,0
DA:74,0
DA:77,0
DA:78,0
DA:79,0
DA:87,0
DA:102,0
DA:106,0
DA:107,0
DA:110,0
DA:111,0
DA:112,0
DA:113,0
DA:114,0
DA:115,0
DA:116,0
DA:117,0
DA:120,0
DA:121,0
DA:122,0
DA:123,0
DA:126,0
DA:129,0
DA:130,0
DA:133,0
DA:135,0
DA:137,0
DA:138,0
DA:139,0
DA:140,0
DA:155,0
DA:336,0
DA:337,0
DA:338,0
DA:340,0
DA:345,0
DA:346,0
DA:349,0
DA:351,0
DA:352,0
DA:353,0
DA:356,0
DA:359,0
DA:366,0
DA:368,0
DA:369,0
DA:370,0
DA:372,0
DA:373,0
DA:374,0
DA:375,0
DA:377,0
DA:379,0
DA:381,0
DA:383,84
LF:77
LH:1
end_of_record
TN:
SF:/home/tbrock/Code/mongo-cxx-driver/src/mongo/util/text.h
FNF:0
FNH:0
DA:34,0
DA:38,0
LF:2
LH:0
end_of_record
TN:
SF:/home/tbrock/Code/mongo-cxx-driver/src/mongo/util/time_support.cpp
FN:51,_ZN5mongo16time_t_to_StructElP2tmb
FN:65,_ZN5mongo16time_t_to_StringEl
FN:76,_ZN5mongo22time_t_to_String_shortEl
FN:92,_ZN5mongo16terseCurrentTimeEb
FN:103,_ZN5mongo15timeToISOStringEl
FN:113,_ZN5mongoL16_dateToISOStringENS_6Date_tEb
FN:158,_ZN5mongo18dateToISOStringUTCENS_6Date_tE
FN:162,_ZN5mongo20dateToISOStringLocalENS_6Date_tE
FN:167,_ZN5mongo12_GLOBAL__N_112getNextTokenERKNS_10StringDataES3_mPm
FN:195,_ZN5mongo12_GLOBAL__N_112isOnlyDigitsERKNS_10StringDataE
FN:206,_ZN5mongo12_GLOBAL__N_122parseTimeZoneFromTokenERKNS_10StringDataEPi
FN:280,_ZN5mongo12_GLOBAL__N_120parseMillisFromTokenERKNS_10StringDataEPi
FN:320,_ZN5mongo12_GLOBAL__N_117parseTmFromTokensERKNS_10StringDataES3_S3_S3_S3_S3_P2tm
FN:450,_ZN5mongo12_GLOBAL__N_17parseTmERKNS_10StringDataEP2tmPiS6_
FN:544,_ZN5mongo17dateFromISOStringERKNS_10StringDataE
FN:613,_ZN5mongo6Date_t4toTmEP2tm
FN:622,_ZNK5mongo6Date_t8toStringEv
FN:626,_ZNK5mongo6Date_t7toTimeTEv
FN:632,_ZN5mongo17dateToCtimeStringENS_6Date_tE
FN:645,_ZN5mongo11currentDateEv
FN:651,_ZN5mongo13toPointInTimeERKSsPN5boost10posix_time5ptimeE
FN:721,_ZN5mongo9sleepsecsEi
FN:729,_ZN5mongo11sleepmicrosEx
FN:740,_ZN5mongo11sleepmillisEx
FN:745,_ZN5mongo7Backoff15nextSleepMillisEv
FN:764,_ZNK5mongo7Backoff18getNextSleepMillisEiyy
FN:789,_Z41__static_initialization_and_destruction_0ii
FN:792,_ZN5mongo17jsTimeVirtualSkewEx
FN:795,_ZN5mongo20getJSTimeVirtualSkewEv
FN:799,_ZN5mongo23jsTimeVirtualThreadSkewEx
FN:802,_ZN5mongo26getJSTimeVirtualThreadSkewEv
FN:910,_ZN5mongo15curTimeMillis64Ev
FN:915,_ZN5mongo6jsTimeEv
FN:921,_ZN5mongo15curTimeMicros64Ev
FN:926,_ZN5mongo13curTimeMicrosEv
FN:934,_GLOBAL__sub_I_time_support.cpp
FNDA:869,_ZN5mongo12_GLOBAL__N_112getNextTokenERKNS_10StringDataES3_mPm
FNDA:4,_ZN5mongo17dateToCtimeStringENS_6Date_tE
FNDA:272,_ZN5mongo16time_t_to_StructElP2tmb
FNDA:0,_ZN5mongo13curTimeMicrosEv
FNDA:1,_ZN5mongo9sleepsecsEi
FNDA:5,_ZN5mongo11sleepmicrosEx
FNDA:119,_ZN5mongo12_GLOBAL__N_17parseTmERKNS_10StringDataEP2tmPiS6_
FNDA:268,_ZN5mongoL16_dateToISOStringENS_6Date_tEb
FNDA:0,_ZN5mongo6Date_t4toTmEP2tm
FNDA:25,_ZN5mongo6jsTimeEv
FNDA:471,_ZN5mongo12_GLOBAL__N_112isOnlyDigitsERKNS_10StringDataE
FNDA:0,_ZN5mongo16time_t_to_StringEl
FNDA:25,_ZN5mongo20getJSTimeVirtualSkewEv
FNDA:0,_ZN5mongo16terseCurrentTimeEb
FNDA:0,_ZN5mongo7Backoff15nextSleepMillisEv
FNDA:264,_ZN5mongo20dateToISOStringLocalENS_6Date_tE
FNDA:274,_ZNK5mongo6Date_t7toTimeTEv
FNDA:0,_ZN5mongo22time_t_to_String_shortEl
FNDA:521,_ZN5mongo15curTimeMicros64Ev
FNDA:119,_ZN5mongo17dateFromISOStringERKNS_10StringDataE
FNDA:28,_Z41__static_initialization_and_destruction_0ii
FNDA:4,_ZN5mongo15timeToISOStringEl
FNDA:0,_ZN5mongo11currentDateEv
FNDA:44,_ZN5mongo12_GLOBAL__N_122parseTimeZoneFromTokenERKNS_10StringDataEPi
FNDA:0,_ZNK5mongo6Date_t8toStringEv
FNDA:0,_ZN5mongo17jsTimeVirtualSkewEx
FNDA:110,_ZN5mongo12_GLOBAL__N_117parseTmFromTokensERKNS_10StringDataES3_S3_S3_S3_S3_P2tm
FNDA:28,_GLOBAL__sub_I_time_support.cpp
FNDA:4,_ZN5mongo18dateToISOStringUTCENS_6Date_tE
FNDA:25,_ZN5mongo26getJSTimeVirtualThreadSkewEv
FNDA:254,_ZN5mongo15curTimeMillis64Ev
FNDA:0,_ZN5mongo13toPointInTimeERKSsPN5boost10posix_time5ptimeE
FNDA:5,_ZN5mongo11sleepmillisEx
FNDA:30,_ZN5mongo12_GLOBAL__N_120parseMillisFromTokenERKNS_10StringDataEPi
FNDA:0,_ZNK5mongo7Backoff18getNextSleepMillisEiyy
FNDA:0,_ZN5mongo23jsTimeVirtualThreadSkewEx
FNF:36
FNH:24
DA:51,272
DA:58,272
DA:59,264
DA:61,8
DA:63,272
DA:65,0
DA:70,0
DA:72,0
DA:73,0
DA:76,0
DA:81,0
DA:83,0
DA:84,0
DA:85,0
DA:86,0
DA:92,0
DA:94,0
DA:96,0
DA:98,0
DA:99,0
DA:103,4
DA:105,4
DA:107,4
DA:109,4
DA:110,4
DA:113,268
DA:114,268
DA:117,268
DA:118,268
DA:119,268
DA:120,268
DA:121,268
DA:122,268
DA:123,268
DA:124,268
DA:125,268
DA:126,268
DA:127,264
DA:146,264
DA:150,4
DA:151,4
DA:152,4
DA:153,4
DA:155,268
DA:158,4
DA:159,4
DA:162,264
DA:163,264
DA:167,3944
DA:171,869
DA:173,869
DA:174,0
DA:175,0
DA:178,5587
DA:179,6150
DA:190,869
DA:191,869
DA:195,471
DA:197,3260
DA:199,1180
DA:206,85
DA:208,44
DA:210,44
DA:211,82
DA:212,16
DA:214,4
DA:215,6
DA:218,25
DA:219,50
DA:221,14
DA:222,21
DA:227,18
DA:228,18
DA:229,18
DA:230,18
DA:234,18
DA:236,3
DA:237,3
DA:240,17
DA:241,17
DA:242,34
DA:243,17
DA:247,17
DA:249,3
DA:250,3
DA:258,16
DA:259,32
DA:263,16
DA:267,0
DA:268,0
DA:269,0
DA:270,0
DA:274,3
DA:280,30
DA:284,30
DA:286,30
DA:287,26
DA:289,6
DA:290,9
DA:293,23
DA:294,23
DA:300,23
DA:301,23
DA:304,21
DA:305,2
DA:308,23
DA:310,23
DA:312,0
DA:313,0
DA:320,110
DA:329,110
DA:332,110
DA:334,20
DA:335,30
DA:338,100
DA:339,100
DA:343,100
DA:345,3
DA:346,3
DA:349,99
DA:352,99
DA:354,24
DA:355,36
DA:358,174
DA:359,87
DA:363,87
DA:365,6
DA:366,6
DA:369,85
DA:372,85
DA:374,24
DA:375,36
DA:378,146
DA:379,73
DA:383,73
DA:385,6
DA:386,6
DA:390,71
DA:392,24
DA:393,36
DA:396,118
DA:397,59
DA:401,59
DA:403,3
DA:404,3
DA:408,58
DA:410,18
DA:411,27
DA:414,98
DA:415,49
DA:419,49
DA:421,3
DA:422,3
DA:426,48
DA:430,44
DA:432,6
DA:433,9
DA:436,82
DA:437,41
DA:441,41
DA:443,3
DA:444,3
DA:450,360
DA:454,119
DA:455,119
DA:456,119
DA:457,119
DA:458,119
DA:459,119
DA:460,119
DA:461,119
DA:464,119
DA:465,238
DA:466,238
DA:467,238
DA:468,238
DA:472,349
DA:474,95
DA:476,7
DA:477,1
DA:478,3
DA:481,188
DA:484,94
DA:486,8
DA:487,12
DA:493,292
DA:495,77
DA:497,7
DA:498,1
DA:499,3
DA:502,152
DA:505,76
DA:507,6
DA:508,9
DA:513,110
DA:514,144
DA:516,64
DA:517,24
DA:519,70
DA:520,40
DA:524,110
DA:525,110
DA:529,88
DA:530,44
DA:534,60
DA:535,30
DA:544,119
DA:546,119
DA:547,119
DA:548,119
DA:549,119
DA:550,92
DA:553,27
DA:593,27
DA:594,27
DA:595,27
DA:596,27
DA:597,27
DA:598,27
DA:599,27
DA:603,27
DA:606,27
DA:613,0
DA:614,0
DA:618,0
DA:620,0
DA:622,0
DA:623,0
DA:626,274
DA:627,274
DA:628,274
DA:629,274
DA:632,4
DA:633,4
DA:638,4
DA:640,4
DA:641,4
DA:642,4
DA:645,0
DA:646,0
DA:647,0
DA:651,0
DA:652,0
DA:653,0
DA:654,0
DA:659,0
DA:663,0
DA:664,0
DA:665,0
DA:721,1
DA:723,1
DA:724,1
DA:725,1
DA:726,0
DA:728,1
DA:729,5
DA:730,5
DA:731,0
DA:733,5
DA:734,5
DA:736,5
DA:737,0
DA:740,5
DA:741,5
DA:742,5
DA:745,0
DA:748,0
DA:750,0
DA:752,0
DA:753,0
DA:754,0
DA:755,0
DA:757,0
DA:760,0
DA:761,0
DA:762,0
DA:764,0
DA:769,0
DA:772,0
DA:776,0
DA:779,0
DA:782,0
DA:783,0
DA:785,0
DA:789,28
DA:792,0
DA:793,0
DA:794,0
DA:795,25
DA:796,25
DA:799,0
DA:800,0
DA:801,0
DA:802,25
DA:803,25
DA:804,0
DA:910,254
DA:912,254
DA:913,254
DA:915,25
DA:917,25
DA:918,25
DA:919,25
DA:921,521
DA:923,521
DA:924,521
DA:926,0
DA:928,0
DA:929,0
DA:930,0
DA:934,84
LF:311
LH:238
end_of_record
TN:
SF:/home/tbrock/Code/mongo-cxx-driver/src/mongo/util/time_support.h
FNF:0
FNH:0
DA:37,94
DA:38,395
DA:45,298
DA:110,278
LF:4
LH:4
end_of_record
TN:
SF:/home/tbrock/Code/mongo-cxx-driver/src/mongo/util/timer-generic-inl.h
FNF:0
FNH:0
DA:35,236
LF:1
LH:1
end_of_record
TN:
SF:/home/tbrock/Code/mongo-cxx-driver/src/mongo/util/timer.cpp
FN:60,_Z41__static_initialization_and_destruction_0ii
FN:69,_GLOBAL__sub_I_timer.cpp
FNDA:28,_GLOBAL__sub_I_timer.cpp
FNDA:28,_Z41__static_initialization_and_destruction_0ii
FNF:2
FNH:2
DA:60,28
DA:69,84
LF:2
LH:2
end_of_record
TN:
SF:/home/tbrock/Code/mongo-cxx-driver/src/mongo/util/timer.h
FNF:0
FNH:0
DA:43,2
DA:60,236
DA:63,236
LF:3
LH:3
end_of_record
TN:
SF:/home/tbrock/Code/mongo-cxx-driver/src/mongo/util/unordered_fast_key_table.h
FN:48,_ZN5mongo21UnorderedFastKeyTableINS_10StringDataESsN5boost10shared_ptrINS_17ReplicaSetMonitorEEENS1_6HasherENS_21StringMapDefaultEqualENS_25StringMapDefaultConvertorENS_30StringMapDefaultConvertorOtherEE5EntryaSERKSB_
FN:48,_ZN5mongo21UnorderedFastKeyTableINS_10StringDataESsSt3setINS_11HostAndPortESt4lessIS3_ESaIS3_EENS1_6HasherENS_21StringMapDefaultEqualENS_25StringMapDefaultConvertorENS_30StringMapDefaultConvertorOtherEE5EntryaSERKSD_
FN:140,_ZN5mongo21UnorderedFastKeyTableINS_10StringDataESsN5boost10shared_ptrINS_17ReplicaSetMonitorEEENS1_6HasherENS_21StringMapDefaultEqualENS_25StringMapDefaultConvertorENS_30StringMapDefaultConvertorOtherEE14const_iteratorppEv
FN:160,_ZN5mongo21UnorderedFastKeyTableINS_10StringDataESsN5boost10shared_ptrINS_17ReplicaSetMonitorEEENS1_6HasherENS_21StringMapDefaultEqualENS_25StringMapDefaultConvertorENS_30StringMapDefaultConvertorOtherEE14const_iterator5_skipEv
FNDA:1600,_ZN5mongo21UnorderedFastKeyTableINS_10StringDataESsN5boost10shared_ptrINS_17ReplicaSetMonitorEEENS1_6HasherENS_21StringMapDefaultEqualENS_25StringMapDefaultConvertorENS_30StringMapDefaultConvertorOtherEE5EntryaSERKSB_
FNDA:0,_ZN5mongo21UnorderedFastKeyTableINS_10StringDataESsN5boost10shared_ptrINS_17ReplicaSetMonitorEEENS1_6HasherENS_21StringMapDefaultEqualENS_25StringMapDefaultConvertorENS_30StringMapDefaultConvertorOtherEE14const_iterator5_skipEv
FNDA:0,_ZN5mongo21UnorderedFastKeyTableINS_10StringDataESsN5boost10shared_ptrINS_17ReplicaSetMonitorEEENS1_6HasherENS_21StringMapDefaultEqualENS_25StringMapDefaultConvertorENS_30StringMapDefaultConvertorOtherEE14const_iteratorppEv
FNDA:1600,_ZN5mongo21UnorderedFastKeyTableINS_10StringDataESsSt3setINS_11HostAndPortESt4lessIS3_ESaIS3_EENS1_6HasherENS_21StringMapDefaultEqualENS_25StringMapDefaultConvertorENS_30StringMapDefaultConvertorOtherEE5EntryaSERKSD_
FNF:4
FNH:2
DA:41,216
DA:48,13920
DA:50,7520
DA:59,376
DA:69,160
DA:70,160
DA:71,160
DA:94,160
DA:112,28
DA:127,0
DA:128,0
DA:129,0
DA:130,0
DA:138,52
DA:140,0
DA:141,0
DA:142,0
DA:143,0
DA:144,0
DA:145,0
DA:147,0
DA:148,0
DA:160,0
DA:162,0
DA:164,0
DA:165,0
DA:166,0
DA:168,0
DA:170,0
LF:29
LH:10
end_of_record
TN:
SF:/home/tbrock/Code/mongo-cxx-driver/src/mongo/util/unordered_fast_key_table_internal.h
FN:23,_ZN5mongo21UnorderedFastKeyTableINS_10StringDataESsSt3setINS_11HostAndPortESt4lessIS3_ESaIS3_EENS1_6HasherENS_21StringMapDefaultEqualENS_25StringMapDefaultConvertorENS_30StringMapDefaultConvertorOtherEE4AreaC2Ejd
FN:23,_ZN5mongo21UnorderedFastKeyTableINS_10StringDataESsN5boost10shared_ptrINS_17ReplicaSetMonitorEEENS1_6HasherENS_21StringMapDefaultEqualENS_25StringMapDefaultConvertorENS_30StringMapDefaultConvertorOtherEE4AreaC2Ejd
FN:31,_ZN5mongo21UnorderedFastKeyTableINS_10StringDataESsN5boost10shared_ptrINS_17ReplicaSetMonitorEEENS1_6HasherENS_21StringMapDefaultEqualENS_25StringMapDefaultConvertorENS_30StringMapDefaultConvertorOtherEE4AreaC2ERKSB_
FN:31,_ZN5mongo21UnorderedFastKeyTableINS_10StringDataESsSt3setINS_11HostAndPortESt4lessIS3_ESaIS3_EENS1_6HasherENS_21StringMapDefaultEqualENS_25StringMapDefaultConvertorENS_30StringMapDefaultConvertorOtherEE4AreaC2ERKSD_
FN:41,_ZNK5mongo21UnorderedFastKeyTableINS_10StringDataESsSt3setINS_11HostAndPortESt4lessIS3_ESaIS3_EENS1_6HasherENS_21StringMapDefaultEqualENS_25StringMapDefaultConvertorENS_30StringMapDefaultConvertorOtherEE4Area4findERKS1_mPiRKSC_
FN:41,_ZNK5mongo21UnorderedFastKeyTableINS_10StringDataESsN5boost10shared_ptrINS_17ReplicaSetMonitorEEENS1_6HasherENS_21StringMapDefaultEqualENS_25StringMapDefaultConvertorENS_30StringMapDefaultConvertorOtherEE4Area4findERKS1_mPiRKSA_
FN:80,_ZNK5mongo21UnorderedFastKeyTableINS_10StringDataESsSt3setINS_11HostAndPortESt4lessIS3_ESaIS3_EENS1_6HasherENS_21StringMapDefaultEqualENS_25StringMapDefaultConvertorENS_30StringMapDefaultConvertorOtherEE4Area8transferEPSD_RKSC_
FN:80,_ZNK5mongo21UnorderedFastKeyTableINS_10StringDataESsN5boost10shared_ptrINS_17ReplicaSetMonitorEEENS1_6HasherENS_21StringMapDefaultEqualENS_25StringMapDefaultConvertorENS_30StringMapDefaultConvertorOtherEE4Area8transferEPSB_RKSA_
FN:124,_ZNK5mongo21UnorderedFastKeyTableINS_10StringDataESsSt3setINS_11HostAndPortESt4lessIS3_ESaIS3_EENS1_6HasherENS_21StringMapDefaultEqualENS_25StringMapDefaultConvertorENS_30StringMapDefaultConvertorOtherEE6copyToEPSC_
FN:124,_ZNK5mongo21UnorderedFastKeyTableINS_10StringDataESsN5boost10shared_ptrINS_17ReplicaSetMonitorEEENS1_6HasherENS_21StringMapDefaultEqualENS_25StringMapDefaultConvertorENS_30StringMapDefaultConvertorOtherEE6copyToEPSA_
FN:132,_ZN5mongo21UnorderedFastKeyTableINS_10StringDataESsN5boost10shared_ptrINS_17ReplicaSetMonitorEEENS1_6HasherENS_21StringMapDefaultEqualENS_25StringMapDefaultConvertorENS_30StringMapDefaultConvertorOtherEE3getERKS1_
FN:132,_ZN5mongo21UnorderedFastKeyTableINS_10StringDataESsSt3setINS_11HostAndPortESt4lessIS3_ESaIS3_EENS1_6HasherENS_21StringMapDefaultEqualENS_25StringMapDefaultConvertorENS_30StringMapDefaultConvertorOtherEE3getERKS1_
FN:160,_ZN5mongo21UnorderedFastKeyTableINS_10StringDataESsSt3setINS_11HostAndPortESt4lessIS3_ESaIS3_EENS1_6HasherENS_21StringMapDefaultEqualENS_25StringMapDefaultConvertorENS_30StringMapDefaultConvertorOtherEE5eraseERKS1_
FN:174,_ZN5mongo21UnorderedFastKeyTableINS_10StringDataESsN5boost10shared_ptrINS_17ReplicaSetMonitorEEENS1_6HasherENS_21StringMapDefaultEqualENS_25StringMapDefaultConvertorENS_30StringMapDefaultConvertorOtherEE5eraseENSA_14const_iteratorE.isra.145
FN:183,_ZN5mongo21UnorderedFastKeyTableINS_10StringDataESsSt3setINS_11HostAndPortESt4lessIS3_ESaIS3_EENS1_6HasherENS_21StringMapDefaultEqualENS_25StringMapDefaultConvertorENS_30StringMapDefaultConvertorOtherEE5_growEv
FN:183,_ZN5mongo21UnorderedFastKeyTableINS_10StringDataESsN5boost10shared_ptrINS_17ReplicaSetMonitorEEENS1_6HasherENS_21StringMapDefaultEqualENS_25StringMapDefaultConvertorENS_30StringMapDefaultConvertorOtherEE5_growEv
FN:201,_ZNK5mongo21UnorderedFastKeyTableINS_10StringDataESsSt3setINS_11HostAndPortESt4lessIS3_ESaIS3_EENS1_6HasherENS_21StringMapDefaultEqualENS_25StringMapDefaultConvertorENS_30StringMapDefaultConvertorOtherEE4findERKS1_
FN:201,_ZNK5mongo21UnorderedFastKeyTableINS_10StringDataESsN5boost10shared_ptrINS_17ReplicaSetMonitorEEENS1_6HasherENS_21StringMapDefaultEqualENS_25StringMapDefaultConvertorENS_30StringMapDefaultConvertorOtherEE4findERKS1_
FN:218,_ZNK5mongo21UnorderedFastKeyTableINS_10StringDataESsN5boost10shared_ptrINS_17ReplicaSetMonitorEEENS1_6HasherENS_21StringMapDefaultEqualENS_25StringMapDefaultConvertorENS_30StringMapDefaultConvertorOtherEE5beginEv
FNDA:0,_ZN5mongo21UnorderedFastKeyTableINS_10StringDataESsN5boost10shared_ptrINS_17ReplicaSetMonitorEEENS1_6HasherENS_21StringMapDefaultEqualENS_25StringMapDefaultConvertorENS_30StringMapDefaultConvertorOtherEE5_growEv
FNDA:80,_ZNK5mongo21UnorderedFastKeyTableINS_10StringDataESsN5boost10shared_ptrINS_17ReplicaSetMonitorEEENS1_6HasherENS_21StringMapDefaultEqualENS_25StringMapDefaultConvertorENS_30StringMapDefaultConvertorOtherEE4Area4findERKS1_mPiRKSA_
FNDA:80,_ZNK5mongo21UnorderedFastKeyTableINS_10StringDataESsN5boost10shared_ptrINS_17ReplicaSetMonitorEEENS1_6HasherENS_21StringMapDefaultEqualENS_25StringMapDefaultConvertorENS_30StringMapDefaultConvertorOtherEE6copyToEPSA_
FNDA:0,_ZN5mongo21UnorderedFastKeyTableINS_10StringDataESsN5boost10shared_ptrINS_17ReplicaSetMonitorEEENS1_6HasherENS_21StringMapDefaultEqualENS_25StringMapDefaultConvertorENS_30StringMapDefaultConvertorOtherEE5eraseENSA_14const_iteratorE.isra.145
FNDA:108,_ZN5mongo21UnorderedFastKeyTableINS_10StringDataESsSt3setINS_11HostAndPortESt4lessIS3_ESaIS3_EENS1_6HasherENS_21StringMapDefaultEqualENS_25StringMapDefaultConvertorENS_30StringMapDefaultConvertorOtherEE4AreaC2Ejd
FNDA:0,_ZN5mongo21UnorderedFastKeyTableINS_10StringDataESsSt3setINS_11HostAndPortESt4lessIS3_ESaIS3_EENS1_6HasherENS_21StringMapDefaultEqualENS_25StringMapDefaultConvertorENS_30StringMapDefaultConvertorOtherEE5_growEv
FNDA:108,_ZN5mongo21UnorderedFastKeyTableINS_10StringDataESsN5boost10shared_ptrINS_17ReplicaSetMonitorEEENS1_6HasherENS_21StringMapDefaultEqualENS_25StringMapDefaultConvertorENS_30StringMapDefaultConvertorOtherEE4AreaC2Ejd
FNDA:0,_ZN5mongo21UnorderedFastKeyTableINS_10StringDataESsSt3setINS_11HostAndPortESt4lessIS3_ESaIS3_EENS1_6HasherENS_21StringMapDefaultEqualENS_25StringMapDefaultConvertorENS_30StringMapDefaultConvertorOtherEE3getERKS1_
FNDA:52,_ZNK5mongo21UnorderedFastKeyTableINS_10StringDataESsN5boost10shared_ptrINS_17ReplicaSetMonitorEEENS1_6HasherENS_21StringMapDefaultEqualENS_25StringMapDefaultConvertorENS_30StringMapDefaultConvertorOtherEE4findERKS1_
FNDA:0,_ZNK5mongo21UnorderedFastKeyTableINS_10StringDataESsSt3setINS_11HostAndPortESt4lessIS3_ESaIS3_EENS1_6HasherENS_21StringMapDefaultEqualENS_25StringMapDefaultConvertorENS_30StringMapDefaultConvertorOtherEE4Area8transferEPSD_RKSC_
FNDA:0,_ZNK5mongo21UnorderedFastKeyTableINS_10StringDataESsN5boost10shared_ptrINS_17ReplicaSetMonitorEEENS1_6HasherENS_21StringMapDefaultEqualENS_25StringMapDefaultConvertorENS_30StringMapDefaultConvertorOtherEE4Area8transferEPSB_RKSA_
FNDA:0,_ZNK5mongo21UnorderedFastKeyTableINS_10StringDataESsN5boost10shared_ptrINS_17ReplicaSetMonitorEEENS1_6HasherENS_21StringMapDefaultEqualENS_25StringMapDefaultConvertorENS_30StringMapDefaultConvertorOtherEE5beginEv
FNDA:80,_ZN5mongo21UnorderedFastKeyTableINS_10StringDataESsSt3setINS_11HostAndPortESt4lessIS3_ESaIS3_EENS1_6HasherENS_21StringMapDefaultEqualENS_25StringMapDefaultConvertorENS_30StringMapDefaultConvertorOtherEE4AreaC2ERKSD_
FNDA:0,_ZNK5mongo21UnorderedFastKeyTableINS_10StringDataESsSt3setINS_11HostAndPortESt4lessIS3_ESaIS3_EENS1_6HasherENS_21StringMapDefaultEqualENS_25StringMapDefaultConvertorENS_30StringMapDefaultConvertorOtherEE4Area4findERKS1_mPiRKSC_
FNDA:80,_ZN5mongo21UnorderedFastKeyTableINS_10StringDataESsN5boost10shared_ptrINS_17ReplicaSetMonitorEEENS1_6HasherENS_21StringMapDefaultEqualENS_25StringMapDefaultConvertorENS_30StringMapDefaultConvertorOtherEE4AreaC2ERKSB_
FNDA:80,_ZNK5mongo21UnorderedFastKeyTableINS_10StringDataESsSt3setINS_11HostAndPortESt4lessIS3_ESaIS3_EENS1_6HasherENS_21StringMapDefaultEqualENS_25StringMapDefaultConvertorENS_30StringMapDefaultConvertorOtherEE6copyToEPSC_
FNDA:28,_ZN5mongo21UnorderedFastKeyTableINS_10StringDataESsN5boost10shared_ptrINS_17ReplicaSetMonitorEEENS1_6HasherENS_21StringMapDefaultEqualENS_25StringMapDefaultConvertorENS_30StringMapDefaultConvertorOtherEE3getERKS1_
FNDA:0,_ZNK5mongo21UnorderedFastKeyTableINS_10StringDataESsSt3setINS_11HostAndPortESt4lessIS3_ESaIS3_EENS1_6HasherENS_21StringMapDefaultEqualENS_25StringMapDefaultConvertorENS_30StringMapDefaultConvertorOtherEE4findERKS1_
FNDA:0,_ZN5mongo21UnorderedFastKeyTableINS_10StringDataESsSt3setINS_11HostAndPortESt4lessIS3_ESaIS3_EENS1_6HasherENS_21StringMapDefaultEqualENS_25StringMapDefaultConvertorENS_30StringMapDefaultConvertorOtherEE5eraseERKS1_
FNF:19
FNH:9
DA:23,216
DA:27,4536
DA:28,216
DA:31,160
DA:34,3360
DA:35,3360
DA:36,3200
DA:38,160
DA:41,80
DA:46,80
DA:47,28
DA:49,0
DA:50,80
DA:52,80
DA:54,28
DA:55,28
DA:56,28
DA:61,52
DA:66,156
DA:74,52
DA:80,0
DA:83,0
DA:84,0
DA:85,0
DA:87,0
DA:89,0
DA:91,0
DA:93,0
DA:94,0
DA:95,0
DA:98,0
DA:107,216
DA:108,216
DA:124,160
DA:125,160
DA:126,160
DA:127,160
DA:128,160
DA:129,160
DA:132,28
DA:134,28
DA:136,56
DA:137,28
DA:138,28
DA:139,28
DA:140,28
DA:144,28
DA:145,28
DA:146,28
DA:147,28
DA:148,28
DA:149,84
DA:150,28
DA:154,0
DA:156,0
DA:160,0
DA:162,0
DA:163,0
DA:165,0
DA:168,0
DA:169,0
DA:170,0
DA:174,0
DA:178,0
DA:179,0
DA:180,0
DA:183,0
DA:184,0
DA:185,0
DA:186,0
DA:187,0
DA:188,0
DA:189,0
DA:192,0
DA:193,0
DA:195,0
DA:201,52
DA:202,52
DA:203,0
DA:204,52
DA:205,52
DA:206,0
DA:207,52
DA:218,0
DA:219,0
LF:85
LH:46
end_of_record
TN:
SF:/home/tbrock/Code/mongo-cxx-driver/src/mongo/util/util.cpp
FN:35,_ZN5mongo7hexdumpEPKcj
FN:47,_ZN5mongo7isPrimeEi
FN:59,_ZN5mongo9nextPrimeEi
FN:66,_ZN5mongolsERSoRKNS_16ThreadSafeStringE
FN:73,_Z41__static_initialization_and_destruction_0ii
FN:73,_GLOBAL__sub_I_util.cpp
FNDA:0,_ZN5mongo7hexdumpEPKcj
FNDA:0,_ZN5mongolsERSoRKNS_16ThreadSafeStringE
FNDA:0,_ZN5mongo9nextPrimeEi
FNDA:28,_Z41__static_initialization_and_destruction_0ii
FNDA:28,_GLOBAL__sub_I_util.cpp
FNDA:0,_ZN5mongo7isPrimeEi
FNF:6
FNH:2
DA:35,0
DA:36,0
DA:37,0
DA:38,0
DA:39,0
DA:40,0
DA:41,0
DA:44,0
DA:47,0
DA:48,0
DA:50,0
DA:52,0
DA:54,0
DA:56,0
DA:59,0
DA:60,0
DA:61,0
DA:62,0
DA:63,0
DA:66,0
DA:67,0
DA:68,0
DA:73,84
LF:23
LH:1
end_of_record
TN:
SF:/home/tbrock/Code/mongo-cxx-driver/src/mongo/util/version.cpp
FN:41,_ZN5mongo14toVersionArrayEPKc
FN:79,_ZN5mongo18isSameMajorVersionEPKc
FN:96,_Z41__static_initialization_and_destruction_0ii
FN:98,_ZN5mongo13mongodVersionEv
FN:133,_GLOBAL__sub_I_version.cpp
FNDA:28,_Z41__static_initialization_and_destruction_0ii
FNDA:28,_GLOBAL__sub_I_version.cpp
FNDA:28,_ZN5mongo14toVersionArrayEPKc
FNDA:0,_ZN5mongo13mongodVersionEv
FNDA:0,_ZN5mongo18isSameMajorVersionEPKc
FNF:5
FNH:3
DA:41,28
DA:45,28
DA:46,28
DA:47,252
DA:48,280
DA:49,168
DA:50,168
DA:54,224
DA:55,84
DA:57,28
DA:58,0
DA:59,28
DA:61,84
DA:62,28
DA:63,168
DA:64,28
DA:65,28
DA:67,0
DA:75,28
DA:76,56
DA:79,0
DA:81,0
DA:88,0
DA:89,0
DA:90,0
DA:93,0
DA:96,28
DA:98,0
DA:99,0
DA:100,0
DA:101,0
DA:133,84
LF:32
LH:20
end_of_record
